---
triple:          'arm64-apple-darwin'
binary-path:     a.out
relocations:
  - { offsetInCU: 0x8F94, offset: 0x8F94, size: 0x8, addend: 0x0, symName: __ZNSt3__14endlB8ue170006IcNS_11char_traitsIcEEEERNS_13basic_ostreamIT_T0_EES7_, symObjAddr: 0x524, symBinAddr: 0x1000049BC, symSize: 0x58 }
  - { offsetInCU: 0x8FD4, offset: 0x8FD4, size: 0x8, addend: 0x0, symName: __ZNSt3__1neB8ue170006IPNS_6vectorIiNS_9allocatorIiEEEEEEbRKNS_11__wrap_iterIT_EESA_, symObjAddr: 0x748, symBinAddr: 0x100004BE0, symSize: 0x34 }
  - { offsetInCU: 0x9017, offset: 0x9017, size: 0x8, addend: 0x0, symName: __ZNSt3__112__to_addressB8ue170006IN8Solution11node_structEEEPT_S4_, symObjAddr: 0x10F0, symBinAddr: 0x100005588, symSize: 0x14 }
  - { offsetInCU: 0x904C, offset: 0x904C, size: 0x8, addend: 0x0, symName: __ZNSt3__13maxB8ue170006ImEERKT_S3_S3_, symObjAddr: 0x151C, symBinAddr: 0x1000059B4, symSize: 0x2C }
  - { offsetInCU: 0x908F, offset: 0x908F, size: 0x8, addend: 0x0, symName: __ZNSt3__13minB8ue170006ImEERKT_S3_S3_, symObjAddr: 0x1548, symBinAddr: 0x1000059E0, symSize: 0x2C }
  - { offsetInCU: 0x92BC, offset: 0x92BC, size: 0x8, addend: 0x0, symName: __ZNSt3__13minB8ue170006ImNS_6__lessIvvEEEERKT_S5_S5_T0_, symObjAddr: 0x15D4, symBinAddr: 0x100005A6C, symSize: 0x54 }
  - { offsetInCU: 0x935B, offset: 0x935B, size: 0x8, addend: 0x0, symName: __ZNSt3__120__throw_length_errorB8ue170006EPKc, symObjAddr: 0x16B4, symBinAddr: 0x100005B4C, symSize: 0x64 }
  - { offsetInCU: 0x9385, offset: 0x9385, size: 0x8, addend: 0x0, symName: __ZNSt3__13maxB8ue170006ImNS_6__lessIvvEEEERKT_S5_S5_T0_, symObjAddr: 0x17F8, symBinAddr: 0x100005C90, symSize: 0x54 }
  - { offsetInCU: 0x93DF, offset: 0x93DF, size: 0x8, addend: 0x0, symName: __ZNSt3__119__allocate_at_leastB8ue170006INS_9allocatorIN8Solution11node_structEEEEENS_19__allocation_resultINS_16allocator_traitsIT_E7pointerEEERS7_m, symObjAddr: 0x1968, symBinAddr: 0x100005E00, symSize: 0x40 }
  - { offsetInCU: 0x9422, offset: 0x9422, size: 0x8, addend: 0x0, symName: __ZNSt3__117__libcpp_allocateB8ue170006Emm, symObjAddr: 0x1AF0, symBinAddr: 0x100005F88, symSize: 0x60 }
  - { offsetInCU: 0x947C, offset: 0x947C, size: 0x8, addend: 0x0, symName: __ZNSt3__124__is_overaligned_for_newB8ue170006Em, symObjAddr: 0x1B50, symBinAddr: 0x100005FE8, symSize: 0x20 }
  - { offsetInCU: 0x94AA, offset: 0x94AA, size: 0x8, addend: 0x0, symName: __ZNSt3__121__libcpp_operator_newB8ue170006IJmSt11align_val_tEEEPvDpT_, symObjAddr: 0x1B70, symBinAddr: 0x100006008, symSize: 0x2C }
  - { offsetInCU: 0x94F7, offset: 0x94F7, size: 0x8, addend: 0x0, symName: __ZNSt3__121__libcpp_operator_newB8ue170006IJmEEEPvDpT_, symObjAddr: 0x1B9C, symBinAddr: 0x100006034, symSize: 0x24 }
  - { offsetInCU: 0x9530, offset: 0x9530, size: 0x8, addend: 0x0, symName: __ZNSt3__142__uninitialized_allocator_move_if_noexceptB8ue170006INS_9allocatorIN8Solution11node_structEEENS_16reverse_iteratorIPS3_EES7_S3_vEET1_RT_T0_SB_S8_, symObjAddr: 0x1CF8, symBinAddr: 0x100006190, symSize: 0x78 }
  - { offsetInCU: 0x95AD, offset: 0x95AD, size: 0x8, addend: 0x0, symName: __ZNSt3__14swapB8ue170006IPN8Solution11node_structEEENS_9enable_ifIXaasr21is_move_constructibleIT_EE5valuesr18is_move_assignableIS5_EE5valueEvE4typeERS5_S8_, symObjAddr: 0x1DBC, symBinAddr: 0x100006254, symSize: 0x3C }
  - { offsetInCU: 0x95FE, offset: 0x95FE, size: 0x8, addend: 0x0, symName: __ZNSt3__14moveB8ue170006INS_16reverse_iteratorIPN8Solution11node_structEEES5_EET0_T_S7_S6_, symObjAddr: 0x1F08, symBinAddr: 0x1000063A0, symSize: 0x78 }
  - { offsetInCU: 0x9658, offset: 0x9658, size: 0x8, addend: 0x0, symName: __ZNSt3__16__moveB8ue170006INS_17_ClassicAlgPolicyENS_16reverse_iteratorIPN8Solution11node_structEEES6_S6_EENS_4pairIT0_T2_EES8_T1_S9_, symObjAddr: 0x1F80, symBinAddr: 0x100006418, symSize: 0x64 }
  - { offsetInCU: 0x96C4, offset: 0x96C4, size: 0x8, addend: 0x0, symName: __ZNSt3__123__dispatch_copy_or_moveB8ue170006INS_17_ClassicAlgPolicyENS_11__move_loopIS1_EENS_14__move_trivialENS_16reverse_iteratorIPN8Solution11node_structEEES9_S9_EENS_4pairIT2_T4_EESB_T3_SC_, symObjAddr: 0x1FE4, symBinAddr: 0x10000647C, symSize: 0x64 }
  - { offsetInCU: 0x9742, offset: 0x9742, size: 0x8, addend: 0x0, symName: __ZNSt3__121__unwrap_and_dispatchB8ue170006INS_10__overloadINS_11__move_loopINS_17_ClassicAlgPolicyEEENS_14__move_trivialEEENS_16reverse_iteratorIPN8Solution11node_structEEESB_SB_Li0EEENS_4pairIT0_T2_EESD_T1_SE_, symObjAddr: 0x2048, symBinAddr: 0x1000064E0, symSize: 0x12C }
  - { offsetInCU: 0x97D2, offset: 0x97D2, size: 0x8, addend: 0x0, symName: __ZNSt3__114__unwrap_rangeB8ue170006INS_16reverse_iteratorIPN8Solution11node_structEEES5_EENS_4pairIT0_S7_EET_S9_, symObjAddr: 0x2174, symBinAddr: 0x10000660C, symSize: 0x84 }
  - { offsetInCU: 0x998C, offset: 0x998C, size: 0x8, addend: 0x0, symName: __ZNSt3__113__unwrap_iterB8ue170006INS_16reverse_iteratorIPN8Solution11node_structEEENS_18__unwrap_iter_implIS5_Lb0EEELi0EEEDTclsrT0_8__unwrapclsr3stdE7declvalIT_EEEES9_, symObjAddr: 0x22A0, symBinAddr: 0x100006738, symSize: 0x44 }
  - { offsetInCU: 0x99D0, offset: 0x99D0, size: 0x8, addend: 0x0, symName: __ZNSt3__19make_pairB8ue170006INS_16reverse_iteratorIPN8Solution11node_structEEES5_EENS_4pairINS_18__unwrap_ref_decayIT_E4typeENS7_IT0_E4typeEEEOS8_OSB_, symObjAddr: 0x22E4, symBinAddr: 0x10000677C, symSize: 0x38 }
  - { offsetInCU: 0x9A1F, offset: 0x9A1F, size: 0x8, addend: 0x0, symName: __ZNSt3__114__rewrap_rangeB8ue170006INS_16reverse_iteratorIPN8Solution11node_structEEES5_EET_S6_T0_, symObjAddr: 0x231C, symBinAddr: 0x1000067B4, symSize: 0x5C }
  - { offsetInCU: 0x9A6B, offset: 0x9A6B, size: 0x8, addend: 0x0, symName: __ZNSt3__113__rewrap_iterB8ue170006INS_16reverse_iteratorIPN8Solution11node_structEEES5_NS_18__unwrap_iter_implIS5_Lb0EEEEET_S8_T0_, symObjAddr: 0x2378, symBinAddr: 0x100006810, symSize: 0x74 }
  - { offsetInCU: 0x9AC0, offset: 0x9AC0, size: 0x8, addend: 0x0, symName: __ZNSt3__1neB8ue170006IPN8Solution11node_structES3_EEbRKNS_16reverse_iteratorIT_EERKNS4_IT0_EE, symObjAddr: 0x23EC, symBinAddr: 0x100006884, symSize: 0x48 }
  - { offsetInCU: 0x9BF1, offset: 0x9BF1, size: 0x8, addend: 0x0, symName: __ZNSt3__119__libcpp_deallocateB8ue170006EPvmm, symObjAddr: 0x27E8, symBinAddr: 0x100006C80, symSize: 0x60 }
  - { offsetInCU: 0x9C56, offset: 0x9C56, size: 0x8, addend: 0x0, symName: __ZNSt3__127__do_deallocate_handle_sizeB8ue170006IJSt11align_val_tEEEvPvmDpT_, symObjAddr: 0x2848, symBinAddr: 0x100006CE0, symSize: 0x30 }
  - { offsetInCU: 0x9CA9, offset: 0x9CA9, size: 0x8, addend: 0x0, symName: __ZNSt3__127__do_deallocate_handle_sizeB8ue170006IJEEEvPvmDpT_, symObjAddr: 0x2878, symBinAddr: 0x100006D10, symSize: 0x28 }
  - { offsetInCU: 0x9CE7, offset: 0x9CE7, size: 0x8, addend: 0x0, symName: __ZNSt3__124__libcpp_operator_deleteB8ue170006IJPvSt11align_val_tEEEvDpT_, symObjAddr: 0x28A0, symBinAddr: 0x100006D38, symSize: 0x2C }
  - { offsetInCU: 0x9D30, offset: 0x9D30, size: 0x8, addend: 0x0, symName: __ZNSt3__124__libcpp_operator_deleteB8ue170006IJPvEEEvDpT_, symObjAddr: 0x28CC, symBinAddr: 0x100006D64, symSize: 0x24 }
  - { offsetInCU: 0x9D65, offset: 0x9D65, size: 0x8, addend: 0x0, symName: __ZNSt3__1eqB8ue170006IPNS_6vectorIiNS_9allocatorIiEEEEEEbRKNS_11__wrap_iterIT_EESA_, symObjAddr: 0x2B10, symBinAddr: 0x100006FA8, symSize: 0x48 }
  - { offsetInCU: 0x9DA8, offset: 0x9DA8, size: 0x8, addend: 0x0, symName: __ZNSt3__122__make_exception_guardB8ue170006INS_6vectorIiNS_9allocatorIiEEE16__destroy_vectorEEENS_28__exception_guard_exceptionsIT_EES7_, symObjAddr: 0x2DEC, symBinAddr: 0x100007284, symSize: 0x40 }
  - { offsetInCU: 0x9DDD, offset: 0x9DDD, size: 0x8, addend: 0x0, symName: __ZNSt3__119__allocate_at_leastB8ue170006INS_9allocatorIiEEEENS_19__allocation_resultINS_16allocator_traitsIT_E7pointerEEERS5_m, symObjAddr: 0x30D4, symBinAddr: 0x10000756C, symSize: 0x40 }
  - { offsetInCU: 0x9E20, offset: 0x9E20, size: 0x8, addend: 0x0, symName: __ZNSt3__112__to_addressB8ue170006IiEEPT_S2_, symObjAddr: 0x3398, symBinAddr: 0x100007830, symSize: 0x14 }
  - { offsetInCU: 0x9E55, offset: 0x9E55, size: 0x8, addend: 0x0, symName: __ZNSt3__130__uninitialized_allocator_copyB8ue170006INS_9allocatorIiEEPiS3_S3_EET2_RT_T0_T1_S4_, symObjAddr: 0x3448, symBinAddr: 0x1000078E0, symSize: 0x80 }
  - { offsetInCU: 0x9EF2, offset: 0x9EF2, size: 0x8, addend: 0x0, symName: __ZNSt3__114__unwrap_rangeB8ue170006IPiS1_EENS_4pairIT0_S3_EET_S5_, symObjAddr: 0x3538, symBinAddr: 0x1000079D0, symSize: 0x60 }
  - { offsetInCU: 0x9F3E, offset: 0x9F3E, size: 0x8, addend: 0x0, symName: __ZNSt3__135__uninitialized_allocator_copy_implB8ue170006INS_9allocatorIiEEiiiLPv0EEEPT2_RT_PT0_S9_S5_, symObjAddr: 0x3598, symBinAddr: 0x100007A30, symSize: 0x38 }
  - { offsetInCU: 0x9FBF, offset: 0x9FBF, size: 0x8, addend: 0x0, symName: __ZNSt3__113__unwrap_iterB8ue170006IPiNS_18__unwrap_iter_implIS1_Lb1EEELi0EEEDTclsrT0_8__unwrapclsr3stdE7declvalIT_EEEES5_, symObjAddr: 0x35D0, symBinAddr: 0x100007A68, symSize: 0x24 }
  - { offsetInCU: 0xA003, offset: 0xA003, size: 0x8, addend: 0x0, symName: __ZNSt3__113__rewrap_iterB8ue170006IPiS1_NS_18__unwrap_iter_implIS1_Lb1EEEEET_S4_T0_, symObjAddr: 0x35F4, symBinAddr: 0x100007A8C, symSize: 0x3C }
  - { offsetInCU: 0xA058, offset: 0xA058, size: 0x8, addend: 0x0, symName: __ZNSt3__19make_pairB8ue170006IPiS1_EENS_4pairINS_18__unwrap_ref_decayIT_E4typeENS3_IT0_E4typeEEEOS4_OS7_, symObjAddr: 0x3630, symBinAddr: 0x100007AC8, symSize: 0x38 }
  - { offsetInCU: 0xA1AA, offset: 0xA1AA, size: 0x8, addend: 0x0, symName: __ZNSt3__14copyB8ue170006IPiS1_EET0_T_S3_S2_, symObjAddr: 0x36D8, symBinAddr: 0x100007B70, symSize: 0x40 }
  - { offsetInCU: 0xA204, offset: 0xA204, size: 0x8, addend: 0x0, symName: __ZNSt3__16__copyB8ue170006INS_17_ClassicAlgPolicyEPiS2_S2_EENS_4pairIT0_T2_EES4_T1_S5_, symObjAddr: 0x3718, symBinAddr: 0x100007BB0, symSize: 0x44 }
  - { offsetInCU: 0xA270, offset: 0xA270, size: 0x8, addend: 0x0, symName: __ZNSt3__123__dispatch_copy_or_moveB8ue170006INS_17_ClassicAlgPolicyENS_11__copy_loopIS1_EENS_14__copy_trivialEPiS5_S5_EENS_4pairIT2_T4_EES7_T3_S8_, symObjAddr: 0x375C, symBinAddr: 0x100007BF4, symSize: 0x44 }
  - { offsetInCU: 0xA2EE, offset: 0xA2EE, size: 0x8, addend: 0x0, symName: __ZNSt3__121__unwrap_and_dispatchB8ue170006INS_10__overloadINS_11__copy_loopINS_17_ClassicAlgPolicyEEENS_14__copy_trivialEEEPiS7_S7_Li0EEENS_4pairIT0_T2_EES9_T1_SA_, symObjAddr: 0x37A0, symBinAddr: 0x100007C38, symSize: 0xB4 }
  - { offsetInCU: 0xA43A, offset: 0xA43A, size: 0x8, addend: 0x0, symName: __ZNSt3__114__rewrap_rangeB8ue170006IPiS1_EET_S2_T0_, symObjAddr: 0x389C, symBinAddr: 0x100007D34, symSize: 0x2C }
  - { offsetInCU: 0xA486, offset: 0xA486, size: 0x8, addend: 0x0, symName: __ZNSt3__119__copy_trivial_implB8ue170006IiiEENS_4pairIPT_PT0_EES3_S3_S5_, symObjAddr: 0x38C8, symBinAddr: 0x100007D60, symSize: 0x80 }
  - { offsetInCU: 0xA4EE, offset: 0xA4EE, size: 0x8, addend: 0x0, symName: __ZNSt3__119__constexpr_memmoveB8ue170006IiiLi0EEEPT_S2_PT0_NS_15__element_countE, symObjAddr: 0x3948, symBinAddr: 0x100007DE0, symSize: 0x64 }
  - { offsetInCU: 0xA55C, offset: 0xA55C, size: 0x8, addend: 0x0, symName: __ZNSt3__19make_pairB8ue170006IRPiS1_EENS_4pairINS_18__unwrap_ref_decayIT_E4typeENS4_IT0_E4typeEEEOS5_OS8_, symObjAddr: 0x39AC, symBinAddr: 0x100007E44, symSize: 0x38 }
  - { offsetInCU: 0xA5FE, offset: 0xA5FE, size: 0x8, addend: 0x0, symName: __ZNSt3__1neB8ue170006IPKiEEbRKNS_11__wrap_iterIT_EES7_, symObjAddr: 0x3DE8, symBinAddr: 0x100008280, symSize: 0x34 }
  - { offsetInCU: 0xA641, offset: 0xA641, size: 0x8, addend: 0x0, symName: __ZNSt3__14findB8ue170006INS_11__wrap_iterIPKiEEiEET_S5_S5_RKT0_, symObjAddr: 0x3E1C, symBinAddr: 0x1000082B4, symSize: 0x78 }
  - { offsetInCU: 0xA6A9, offset: 0xA6A9, size: 0x8, addend: 0x0, symName: __ZNSt3__1eqB8ue170006IPKiEEbRKNS_11__wrap_iterIT_EES7_, symObjAddr: 0x3EF4, symBinAddr: 0x10000838C, symSize: 0x48 }
  - { offsetInCU: 0xA6EC, offset: 0xA6EC, size: 0x8, addend: 0x0, symName: __ZNSt3__113__rewrap_iterB8ue170006INS_11__wrap_iterIPKiEES3_NS_18__unwrap_iter_implIS4_Lb1EEEEET_S7_T0_, symObjAddr: 0x3F54, symBinAddr: 0x1000083EC, symSize: 0x4C }
  - { offsetInCU: 0xA741, offset: 0xA741, size: 0x8, addend: 0x0, symName: __ZNSt3__111__find_implB8ue170006IPKiS2_iNS_10__identityEEET_S4_T0_RKT1_RT2_, symObjAddr: 0x3FA0, symBinAddr: 0x100008438, symSize: 0x88 }
  - { offsetInCU: 0xA7BB, offset: 0xA7BB, size: 0x8, addend: 0x0, symName: __ZNSt3__113__unwrap_iterB8ue170006INS_11__wrap_iterIPKiEENS_18__unwrap_iter_implIS4_Lb1EEELi0EEEDTclsrT0_8__unwrapclsr3stdE7declvalIT_EEEES8_, symObjAddr: 0x4028, symBinAddr: 0x1000084C0, symSize: 0x2C }
  - { offsetInCU: 0xA852, offset: 0xA852, size: 0x8, addend: 0x0, symName: __ZNSt3__112__to_addressB8ue170006INS_11__wrap_iterIPKiEEvEEu7__decayIDTclsr19__to_address_helperIT_EE6__callclsr3stdE7declvalIRKS5_EEEEES7_, symObjAddr: 0x40EC, symBinAddr: 0x100008584, symSize: 0x24 }
  - { offsetInCU: 0xA92D, offset: 0xA92D, size: 0x8, addend: 0x0, symName: __ZNSt3__112__to_addressB8ue170006IKiEEPT_S3_, symObjAddr: 0x4194, symBinAddr: 0x10000862C, symSize: 0x14 }
  - { offsetInCU: 0xA962, offset: 0xA962, size: 0x8, addend: 0x0, symName: __ZNSt3__18__invokeB8ue170006IRNS_10__identityEJRKiEEEDTclclsr3stdE7declvalIT_EEspclsr3stdE7declvalIT0_EEEEOS5_DpOS6_, symObjAddr: 0x41A8, symBinAddr: 0x100008640, symSize: 0x2C }
  - { offsetInCU: 0xA9E0, offset: 0xA9E0, size: 0x8, addend: 0x0, symName: __ZNSt3__142__uninitialized_allocator_move_if_noexceptB8ue170006INS_9allocatorIiEENS_16reverse_iteratorIPiEES5_ivEET1_RT_T0_S9_S6_, symObjAddr: 0x48BC, symBinAddr: 0x100008D54, symSize: 0x78 }
  - { offsetInCU: 0xAA5D, offset: 0xAA5D, size: 0x8, addend: 0x0, symName: __ZNSt3__14swapB8ue170006IPiEENS_9enable_ifIXaasr21is_move_constructibleIT_EE5valuesr18is_move_assignableIS3_EE5valueEvE4typeERS3_S6_, symObjAddr: 0x4980, symBinAddr: 0x100008E18, symSize: 0x3C }
  - { offsetInCU: 0xAAAE, offset: 0xAAAE, size: 0x8, addend: 0x0, symName: __ZNSt3__14moveB8ue170006INS_16reverse_iteratorIPiEES3_EET0_T_S5_S4_, symObjAddr: 0x49BC, symBinAddr: 0x100008E54, symSize: 0x78 }
  - { offsetInCU: 0xAB08, offset: 0xAB08, size: 0x8, addend: 0x0, symName: __ZNSt3__16__moveB8ue170006INS_17_ClassicAlgPolicyENS_16reverse_iteratorIPiEES4_S4_EENS_4pairIT0_T2_EES6_T1_S7_, symObjAddr: 0x4A34, symBinAddr: 0x100008ECC, symSize: 0x64 }
  - { offsetInCU: 0xAB74, offset: 0xAB74, size: 0x8, addend: 0x0, symName: __ZNSt3__123__dispatch_copy_or_moveB8ue170006INS_17_ClassicAlgPolicyENS_11__move_loopIS1_EENS_14__move_trivialENS_16reverse_iteratorIPiEES7_S7_EENS_4pairIT2_T4_EES9_T3_SA_, symObjAddr: 0x4A98, symBinAddr: 0x100008F30, symSize: 0x64 }
  - { offsetInCU: 0xABF2, offset: 0xABF2, size: 0x8, addend: 0x0, symName: __ZNSt3__121__unwrap_and_dispatchB8ue170006INS_10__overloadINS_11__move_loopINS_17_ClassicAlgPolicyEEENS_14__move_trivialEEENS_16reverse_iteratorIPiEES9_S9_Li0EEENS_4pairIT0_T2_EESB_T1_SC_, symObjAddr: 0x4AFC, symBinAddr: 0x100008F94, symSize: 0x12C }
  - { offsetInCU: 0xAC82, offset: 0xAC82, size: 0x8, addend: 0x0, symName: __ZNSt3__114__unwrap_rangeB8ue170006INS_16reverse_iteratorIPiEES3_EENS_4pairIT0_S5_EET_S7_, symObjAddr: 0x4C28, symBinAddr: 0x1000090C0, symSize: 0x84 }
  - { offsetInCU: 0xADA2, offset: 0xADA2, size: 0x8, addend: 0x0, symName: __ZNSt3__113__unwrap_iterB8ue170006INS_16reverse_iteratorIPiEENS_18__unwrap_iter_implIS3_Lb0EEELi0EEEDTclsrT0_8__unwrapclsr3stdE7declvalIT_EEEES7_, symObjAddr: 0x4D4C, symBinAddr: 0x1000091E4, symSize: 0x44 }
  - { offsetInCU: 0xADE6, offset: 0xADE6, size: 0x8, addend: 0x0, symName: __ZNSt3__19make_pairB8ue170006INS_16reverse_iteratorIPiEES3_EENS_4pairINS_18__unwrap_ref_decayIT_E4typeENS5_IT0_E4typeEEEOS6_OS9_, symObjAddr: 0x4D90, symBinAddr: 0x100009228, symSize: 0x38 }
  - { offsetInCU: 0xAE35, offset: 0xAE35, size: 0x8, addend: 0x0, symName: __ZNSt3__114__rewrap_rangeB8ue170006INS_16reverse_iteratorIPiEES3_EET_S4_T0_, symObjAddr: 0x4DC8, symBinAddr: 0x100009260, symSize: 0x5C }
  - { offsetInCU: 0xAE81, offset: 0xAE81, size: 0x8, addend: 0x0, symName: __ZNSt3__113__rewrap_iterB8ue170006INS_16reverse_iteratorIPiEES3_NS_18__unwrap_iter_implIS3_Lb0EEEEET_S6_T0_, symObjAddr: 0x4E24, symBinAddr: 0x1000092BC, symSize: 0x74 }
  - { offsetInCU: 0xAED6, offset: 0xAED6, size: 0x8, addend: 0x0, symName: __ZNSt3__1neB8ue170006IPiS1_EEbRKNS_16reverse_iteratorIT_EERKNS2_IT0_EE, symObjAddr: 0x4E98, symBinAddr: 0x100009330, symSize: 0x48 }
  - { offsetInCU: 0xAF8E, offset: 0xAF8E, size: 0x8, addend: 0x0, symName: __ZNSt3__122__make_exception_guardB8ue170006INS_6vectorIN8Solution11node_structENS_9allocatorIS3_EEE16__destroy_vectorEEENS_28__exception_guard_exceptionsIT_EES9_, symObjAddr: 0x5600, symBinAddr: 0x100009A98, symSize: 0x40 }
  - { offsetInCU: 0xAFC3, offset: 0xAFC3, size: 0x8, addend: 0x0, symName: __ZNSt3__130__uninitialized_allocator_copyB8ue170006INS_9allocatorIN8Solution11node_structEEEPS3_S5_S5_EET2_RT_T0_T1_S6_, symObjAddr: 0x5874, symBinAddr: 0x100009D0C, symSize: 0x80 }
  - { offsetInCU: 0xB060, offset: 0xB060, size: 0x8, addend: 0x0, symName: __ZNSt3__114__unwrap_rangeB8ue170006IPN8Solution11node_structES3_EENS_4pairIT0_S5_EET_S7_, symObjAddr: 0x58F4, symBinAddr: 0x100009D8C, symSize: 0x60 }
  - { offsetInCU: 0xB0AC, offset: 0xB0AC, size: 0x8, addend: 0x0, symName: __ZNSt3__135__uninitialized_allocator_copy_implB8ue170006INS_9allocatorIN8Solution11node_structEEES3_S3_S3_LPv0EEEPT2_RT_PT0_SB_S7_, symObjAddr: 0x5954, symBinAddr: 0x100009DEC, symSize: 0x38 }
  - { offsetInCU: 0xB12D, offset: 0xB12D, size: 0x8, addend: 0x0, symName: __ZNSt3__113__unwrap_iterB8ue170006IPN8Solution11node_structENS_18__unwrap_iter_implIS3_Lb1EEELi0EEEDTclsrT0_8__unwrapclsr3stdE7declvalIT_EEEES7_, symObjAddr: 0x598C, symBinAddr: 0x100009E24, symSize: 0x24 }
  - { offsetInCU: 0xB171, offset: 0xB171, size: 0x8, addend: 0x0, symName: __ZNSt3__113__rewrap_iterB8ue170006IPN8Solution11node_structES3_NS_18__unwrap_iter_implIS3_Lb1EEEEET_S6_T0_, symObjAddr: 0x59B0, symBinAddr: 0x100009E48, symSize: 0x3C }
  - { offsetInCU: 0xB1C6, offset: 0xB1C6, size: 0x8, addend: 0x0, symName: __ZNSt3__19make_pairB8ue170006IPN8Solution11node_structES3_EENS_4pairINS_18__unwrap_ref_decayIT_E4typeENS5_IT0_E4typeEEEOS6_OS9_, symObjAddr: 0x59EC, symBinAddr: 0x100009E84, symSize: 0x38 }
  - { offsetInCU: 0xB318, offset: 0xB318, size: 0x8, addend: 0x0, symName: __ZNSt3__14copyB8ue170006IPN8Solution11node_structES3_EET0_T_S5_S4_, symObjAddr: 0x5A94, symBinAddr: 0x100009F2C, symSize: 0x40 }
  - { offsetInCU: 0xB372, offset: 0xB372, size: 0x8, addend: 0x0, symName: __ZNSt3__16__copyB8ue170006INS_17_ClassicAlgPolicyEPN8Solution11node_structES4_S4_EENS_4pairIT0_T2_EES6_T1_S7_, symObjAddr: 0x5AD4, symBinAddr: 0x100009F6C, symSize: 0x44 }
  - { offsetInCU: 0xB3DE, offset: 0xB3DE, size: 0x8, addend: 0x0, symName: __ZNSt3__123__dispatch_copy_or_moveB8ue170006INS_17_ClassicAlgPolicyENS_11__copy_loopIS1_EENS_14__copy_trivialEPN8Solution11node_structES7_S7_EENS_4pairIT2_T4_EES9_T3_SA_, symObjAddr: 0x5B18, symBinAddr: 0x100009FB0, symSize: 0x44 }
  - { offsetInCU: 0xB45C, offset: 0xB45C, size: 0x8, addend: 0x0, symName: __ZNSt3__121__unwrap_and_dispatchB8ue170006INS_10__overloadINS_11__copy_loopINS_17_ClassicAlgPolicyEEENS_14__copy_trivialEEEPN8Solution11node_structES9_S9_Li0EEENS_4pairIT0_T2_EESB_T1_SC_, symObjAddr: 0x5B5C, symBinAddr: 0x100009FF4, symSize: 0xB4 }
  - { offsetInCU: 0xB4EA, offset: 0xB4EA, size: 0x8, addend: 0x0, symName: __ZNSt3__114__rewrap_rangeB8ue170006IPN8Solution11node_structES3_EET_S4_T0_, symObjAddr: 0x5C58, symBinAddr: 0x10000A0F0, symSize: 0x2C }
  - { offsetInCU: 0xB536, offset: 0xB536, size: 0x8, addend: 0x0, symName: __ZNSt3__119__copy_trivial_implB8ue170006IN8Solution11node_structES2_EENS_4pairIPT_PT0_EES5_S5_S7_, symObjAddr: 0x5C84, symBinAddr: 0x10000A11C, symSize: 0x88 }
  - { offsetInCU: 0xB59E, offset: 0xB59E, size: 0x8, addend: 0x0, symName: __ZNSt3__119__constexpr_memmoveB8ue170006IN8Solution11node_structES2_Li0EEEPT_S4_PT0_NS_15__element_countE, symObjAddr: 0x5D0C, symBinAddr: 0x10000A1A4, symSize: 0x68 }
  - { offsetInCU: 0xB60C, offset: 0xB60C, size: 0x8, addend: 0x0, symName: __ZNSt3__19make_pairB8ue170006IRPN8Solution11node_structES3_EENS_4pairINS_18__unwrap_ref_decayIT_E4typeENS6_IT0_E4typeEEEOS7_OSA_, symObjAddr: 0x5D74, symBinAddr: 0x10000A20C, symSize: 0x38 }
  - { offsetInCU: 0xB6AE, offset: 0xB6AE, size: 0x8, addend: 0x0, symName: __ZNSt3__112__to_addressB8ue170006INS_6vectorIiNS_9allocatorIiEEEEEEPT_S6_, symObjAddr: 0x6574, symBinAddr: 0x10000AA0C, symSize: 0x14 }
  - { offsetInCU: 0xB6E3, offset: 0xB6E3, size: 0x8, addend: 0x0, symName: __ZNSt3__130__uninitialized_allocator_copyB8ue170006INS_9allocatorIiEEPKiS4_PiEET2_RT_T0_T1_S6_, symObjAddr: 0x68F8, symBinAddr: 0x10000AD90, symSize: 0x80 }
  - { offsetInCU: 0xB780, offset: 0xB780, size: 0x8, addend: 0x0, symName: __ZNSt3__114__unwrap_rangeB8ue170006IPKiS2_EENS_4pairIT0_S4_EET_S6_, symObjAddr: 0x6978, symBinAddr: 0x10000AE10, symSize: 0x60 }
  - { offsetInCU: 0xB7CC, offset: 0xB7CC, size: 0x8, addend: 0x0, symName: __ZNSt3__135__uninitialized_allocator_copy_implB8ue170006INS_9allocatorIiEEKiiiLPv0EEEPT2_RT_PT0_SA_S6_, symObjAddr: 0x69D8, symBinAddr: 0x10000AE70, symSize: 0x38 }
  - { offsetInCU: 0xB84D, offset: 0xB84D, size: 0x8, addend: 0x0, symName: __ZNSt3__19make_pairB8ue170006IPKiS2_EENS_4pairINS_18__unwrap_ref_decayIT_E4typeENS4_IT0_E4typeEEEOS5_OS8_, symObjAddr: 0x6A10, symBinAddr: 0x10000AEA8, symSize: 0x38 }
  - { offsetInCU: 0xB89C, offset: 0xB89C, size: 0x8, addend: 0x0, symName: __ZNSt3__113__unwrap_iterB8ue170006IPKiNS_18__unwrap_iter_implIS2_Lb1EEELi0EEEDTclsrT0_8__unwrapclsr3stdE7declvalIT_EEEES6_, symObjAddr: 0x6A48, symBinAddr: 0x10000AEE0, symSize: 0x24 }
  - { offsetInCU: 0xBA07, offset: 0xBA07, size: 0x8, addend: 0x0, symName: __ZNSt3__14copyB8ue170006IPKiPiEET0_T_S5_S4_, symObjAddr: 0x6B00, symBinAddr: 0x10000AF98, symSize: 0x40 }
  - { offsetInCU: 0xBA61, offset: 0xBA61, size: 0x8, addend: 0x0, symName: __ZNSt3__16__copyB8ue170006INS_17_ClassicAlgPolicyEPKiS3_PiEENS_4pairIT0_T2_EES6_T1_S7_, symObjAddr: 0x6B40, symBinAddr: 0x10000AFD8, symSize: 0x44 }
  - { offsetInCU: 0xBACD, offset: 0xBACD, size: 0x8, addend: 0x0, symName: __ZNSt3__123__dispatch_copy_or_moveB8ue170006INS_17_ClassicAlgPolicyENS_11__copy_loopIS1_EENS_14__copy_trivialEPKiS6_PiEENS_4pairIT2_T4_EES9_T3_SA_, symObjAddr: 0x6B84, symBinAddr: 0x10000B01C, symSize: 0x44 }
  - { offsetInCU: 0xBB4B, offset: 0xBB4B, size: 0x8, addend: 0x0, symName: __ZNSt3__121__unwrap_and_dispatchB8ue170006INS_10__overloadINS_11__copy_loopINS_17_ClassicAlgPolicyEEENS_14__copy_trivialEEEPKiS8_PiLi0EEENS_4pairIT0_T2_EESB_T1_SC_, symObjAddr: 0x6BC8, symBinAddr: 0x10000B060, symSize: 0xB4 }
  - { offsetInCU: 0xBCDC, offset: 0xBCDC, size: 0x8, addend: 0x0, symName: __ZNSt3__19make_pairB8ue170006IPKiPiEENS_4pairINS_18__unwrap_ref_decayIT_E4typeENS5_IT0_E4typeEEEOS6_OS9_, symObjAddr: 0x6CC4, symBinAddr: 0x10000B15C, symSize: 0x38 }
  - { offsetInCU: 0xBD2B, offset: 0xBD2B, size: 0x8, addend: 0x0, symName: __ZNSt3__114__rewrap_rangeB8ue170006IPKiS2_EET_S3_T0_, symObjAddr: 0x6CFC, symBinAddr: 0x10000B194, symSize: 0x2C }
  - { offsetInCU: 0xBD77, offset: 0xBD77, size: 0x8, addend: 0x0, symName: __ZNSt3__119__copy_trivial_implB8ue170006IKiiEENS_4pairIPT_PT0_EES4_S4_S6_, symObjAddr: 0x6D28, symBinAddr: 0x10000B1C0, symSize: 0x80 }
  - { offsetInCU: 0xBDDF, offset: 0xBDDF, size: 0x8, addend: 0x0, symName: __ZNSt3__119__constexpr_memmoveB8ue170006IiKiLi0EEEPT_S3_PT0_NS_15__element_countE, symObjAddr: 0x6DA8, symBinAddr: 0x10000B240, symSize: 0x64 }
  - { offsetInCU: 0xBE4D, offset: 0xBE4D, size: 0x8, addend: 0x0, symName: __ZNSt3__19make_pairB8ue170006IRPKiPiEENS_4pairINS_18__unwrap_ref_decayIT_E4typeENS6_IT0_E4typeEEEOS7_OSA_, symObjAddr: 0x6E0C, symBinAddr: 0x10000B2A4, symSize: 0x38 }
  - { offsetInCU: 0xBE9C, offset: 0xBE9C, size: 0x8, addend: 0x0, symName: __ZNSt3__113__rewrap_iterB8ue170006IPKiS2_NS_18__unwrap_iter_implIS2_Lb1EEEEET_S5_T0_, symObjAddr: 0x6F24, symBinAddr: 0x10000B3BC, symSize: 0x3C }
  - { offsetInCU: 0xBEF1, offset: 0xBEF1, size: 0x8, addend: 0x0, symName: __ZNSt3__19use_facetB8ue170006INS_5ctypeIcEEEERKT_RKNS_6localeE, symObjAddr: 0x7034, symBinAddr: 0x10000B4CC, symSize: 0x2C }
  - { offsetInCU: 0xC7FF, offset: 0xC7FF, size: 0x8, addend: 0x0, symName: __ZSt28__throw_bad_array_new_lengthB8ue170006v, symObjAddr: 0x1ABC, symBinAddr: 0x100005F54, symSize: 0x34 }
  - { offsetInCU: 0xCFEA, offset: 0xCFEA, size: 0x8, addend: 0x0, symName: __ZNSt3__16vectorIN8Solution11node_structENS_9allocatorIS2_EEE26__swap_out_circular_bufferERNS_14__split_bufferIS2_RS4_EE, symObjAddr: 0x1324, symBinAddr: 0x1000057BC, symSize: 0x110 }
  - { offsetInCU: 0xD05D, offset: 0xD05D, size: 0x8, addend: 0x0, symName: __ZNSt3__16vectorIiNS_9allocatorIiEEE26__swap_out_circular_bufferERNS_14__split_bufferIiRS2_EE, symObjAddr: 0x4554, symBinAddr: 0x1000089EC, symSize: 0x110 }
  - { offsetInCU: 0xF3FB, offset: 0xF3FB, size: 0x8, addend: 0x0, symName: _main, symObjAddr: 0x0, symBinAddr: 0x100004498, symSize: 0x100 }
  - { offsetInCU: 0xF45C, offset: 0xF45C, size: 0x8, addend: 0x0, symName: __ZNSt3__16vectorINS0_IiNS_9allocatorIiEEEENS1_IS3_EEEC1B8ue170006Ev, symObjAddr: 0x100, symBinAddr: 0x100004598, symSize: 0x2C }
  - { offsetInCU: 0xF485, offset: 0xF485, size: 0x8, addend: 0x0, symName: __ZNSt3__16vectorIiNS_9allocatorIiEEEC1B8ue170006ESt16initializer_listIiE, symObjAddr: 0x12C, symBinAddr: 0x1000045C4, symSize: 0x3C }
  - { offsetInCU: 0xF4BF, offset: 0xF4BF, size: 0x8, addend: 0x0, symName: __ZN8Solution23maxKDivisibleComponentsEiRNSt3__16vectorINS1_IiNS0_9allocatorIiEEEENS2_IS4_EEEERS4_i, symObjAddr: 0x168, symBinAddr: 0x100004600, symSize: 0x390 }
  - { offsetInCU: 0xF6F5, offset: 0xF6F5, size: 0x8, addend: 0x0, symName: __ZNSt3__113basic_ostreamIcNS_11char_traitsIcEEElsB8ue170006EPFRS3_S4_E, symObjAddr: 0x4F8, symBinAddr: 0x100004990, symSize: 0x2C }
  - { offsetInCU: 0xF728, offset: 0xF728, size: 0x8, addend: 0x0, symName: __ZNSt3__16vectorIiNS_9allocatorIiEEED1B8ue170006Ev, symObjAddr: 0x57C, symBinAddr: 0x100004A14, symSize: 0x2C }
  - { offsetInCU: 0xF751, offset: 0xF751, size: 0x8, addend: 0x0, symName: __ZNSt3__16vectorINS0_IiNS_9allocatorIiEEEENS1_IS3_EEED1B8ue170006Ev, symObjAddr: 0x5A8, symBinAddr: 0x100004A40, symSize: 0x2C }
  - { offsetInCU: 0xF77A, offset: 0xF77A, size: 0x8, addend: 0x0, symName: __ZNSt3__16vectorIN8Solution11node_structENS_9allocatorIS2_EEEC1B8ue170006Ev, symObjAddr: 0x5D4, symBinAddr: 0x100004A6C, symSize: 0x2C }
  - { offsetInCU: 0xF7A8, offset: 0xF7A8, size: 0x8, addend: 0x0, symName: __ZN8Solution11node_structC1Ev, symObjAddr: 0x600, symBinAddr: 0x100004A98, symSize: 0x2C }
  - { offsetInCU: 0xF7D3, offset: 0xF7D3, size: 0x8, addend: 0x0, symName: __ZNSt3__16vectorIiNS_9allocatorIiEEEixB8ue170006Em, symObjAddr: 0x62C, symBinAddr: 0x100004AC4, symSize: 0x24 }
  - { offsetInCU: 0xF808, offset: 0xF808, size: 0x8, addend: 0x0, symName: __ZNSt3__16vectorIN8Solution11node_structENS_9allocatorIS2_EEE9push_backB8ue170006ERKS2_, symObjAddr: 0x650, symBinAddr: 0x100004AE8, symSize: 0x6C }
  - { offsetInCU: 0xF83E, offset: 0xF83E, size: 0x8, addend: 0x0, symName: __ZNSt3__16vectorIiNS_9allocatorIiEEEC1B8ue170006Ev, symObjAddr: 0x6BC, symBinAddr: 0x100004B54, symSize: 0x2C }
  - { offsetInCU: 0xF866, offset: 0xF866, size: 0x8, addend: 0x0, symName: __ZNSt3__16vectorINS0_IiNS_9allocatorIiEEEENS1_IS3_EEE5beginB8ue170006Ev, symObjAddr: 0x6E8, symBinAddr: 0x100004B80, symSize: 0x30 }
  - { offsetInCU: 0xF88C, offset: 0xF88C, size: 0x8, addend: 0x0, symName: __ZNSt3__16vectorINS0_IiNS_9allocatorIiEEEENS1_IS3_EEE3endB8ue170006Ev, symObjAddr: 0x718, symBinAddr: 0x100004BB0, symSize: 0x30 }
  - { offsetInCU: 0xF8B3, offset: 0xF8B3, size: 0x8, addend: 0x0, symName: __ZNKSt3__111__wrap_iterIPNS_6vectorIiNS_9allocatorIiEEEEEdeB8ue170006Ev, symObjAddr: 0x77C, symBinAddr: 0x100004C14, symSize: 0x18 }
  - { offsetInCU: 0xF8D8, offset: 0xF8D8, size: 0x8, addend: 0x0, symName: __ZNSt3__16vectorIiNS_9allocatorIiEEEC1ERKS3_, symObjAddr: 0x794, symBinAddr: 0x100004C2C, symSize: 0x34 }
  - { offsetInCU: 0xF912, offset: 0xF912, size: 0x8, addend: 0x0, symName: __ZN8Solution5is_inENSt3__16vectorIiNS0_9allocatorIiEEEEi, symObjAddr: 0x7C8, symBinAddr: 0x100004C60, symSize: 0x94 }
  - { offsetInCU: 0xF953, offset: 0xF953, size: 0x8, addend: 0x0, symName: __ZNSt3__16vectorIiNS_9allocatorIiEEE9push_backB8ue170006ERKi, symObjAddr: 0x85C, symBinAddr: 0x100004CF4, symSize: 0x6C }
  - { offsetInCU: 0xF989, offset: 0xF989, size: 0x8, addend: 0x0, symName: __ZNSt3__16vectorIN8Solution11node_structENS_9allocatorIS2_EEEixB8ue170006Em, symObjAddr: 0x8C8, symBinAddr: 0x100004D60, symSize: 0x2C }
  - { offsetInCU: 0xF9BF, offset: 0xF9BF, size: 0x8, addend: 0x0, symName: __ZNSt3__111__wrap_iterIPNS_6vectorIiNS_9allocatorIiEEEEEppB8ue170006Ev, symObjAddr: 0x8F4, symBinAddr: 0x100004D8C, symSize: 0x20 }
  - { offsetInCU: 0xF9E4, offset: 0xF9E4, size: 0x8, addend: 0x0, symName: __ZNSt3__16vectorIiNS_9allocatorIiEEEC1Em, symObjAddr: 0x914, symBinAddr: 0x100004DAC, symSize: 0x34 }
  - { offsetInCU: 0xFA1E, offset: 0xFA1E, size: 0x8, addend: 0x0, symName: __ZN8Solution3DFSENSt3__16vectorINS_11node_structENS0_9allocatorIS2_EEEERNS1_IiNS3_IiEEEEi, symObjAddr: 0x948, symBinAddr: 0x100004DE0, symSize: 0x368 }
  - { offsetInCU: 0xFA6E, offset: 0xFA6E, size: 0x8, addend: 0x0, symName: __ZNSt3__16vectorIN8Solution11node_structENS_9allocatorIS2_EEEC1ERKS5_, symObjAddr: 0xCB0, symBinAddr: 0x100005148, symSize: 0x34 }
  - { offsetInCU: 0xFAA8, offset: 0xFAA8, size: 0x8, addend: 0x0, symName: __ZNSt3__16vectorIN8Solution11node_structENS_9allocatorIS2_EEED1B8ue170006Ev, symObjAddr: 0xCE4, symBinAddr: 0x10000517C, symSize: 0x2C }
  - { offsetInCU: 0xFAD1, offset: 0xFAD1, size: 0x8, addend: 0x0, symName: __ZNSt3__16vectorIN8Solution11node_structENS_9allocatorIS2_EEEC2B8ue170006Ev, symObjAddr: 0xD10, symBinAddr: 0x1000051A8, symSize: 0x4C }
  - { offsetInCU: 0xFB04, offset: 0xFB04, size: 0x8, addend: 0x0, symName: __ZNSt3__117__compressed_pairIPN8Solution11node_structENS_9allocatorIS2_EEEC1B8ue170006IDnNS_18__default_init_tagEEEOT_OT0_, symObjAddr: 0xD5C, symBinAddr: 0x1000051F4, symSize: 0x3C }
  - { offsetInCU: 0xFB5B, offset: 0xFB5B, size: 0x8, addend: 0x0, symName: __ZNSt3__117__compressed_pairIPN8Solution11node_structENS_9allocatorIS2_EEEC2B8ue170006IDnNS_18__default_init_tagEEEOT_OT0_, symObjAddr: 0xDA4, symBinAddr: 0x10000523C, symSize: 0x40 }
  - { offsetInCU: 0xFBB2, offset: 0xFBB2, size: 0x8, addend: 0x0, symName: __ZNSt3__122__compressed_pair_elemIPN8Solution11node_structELi0ELb0EEC2B8ue170006IDnvEEOT_, symObjAddr: 0xDE4, symBinAddr: 0x10000527C, symSize: 0x1C }
  - { offsetInCU: 0xFBF3, offset: 0xFBF3, size: 0x8, addend: 0x0, symName: __ZNSt3__122__compressed_pair_elemINS_9allocatorIN8Solution11node_structEEELi1ELb1EEC2B8ue170006ENS_18__default_init_tagE, symObjAddr: 0xE00, symBinAddr: 0x100005298, symSize: 0x2C }
  - { offsetInCU: 0xFC27, offset: 0xFC27, size: 0x8, addend: 0x0, symName: __ZNSt3__19allocatorIN8Solution11node_structEEC2B8ue170006Ev, symObjAddr: 0xE2C, symBinAddr: 0x1000052C4, symSize: 0x2C }
  - { offsetInCU: 0xFC50, offset: 0xFC50, size: 0x8, addend: 0x0, symName: __ZNSt3__116__non_trivial_ifILb1ENS_9allocatorIN8Solution11node_structEEEEC2B8ue170006Ev, symObjAddr: 0xE58, symBinAddr: 0x1000052F0, symSize: 0x14 }
  - { offsetInCU: 0xFC79, offset: 0xFC79, size: 0x8, addend: 0x0, symName: __ZN8Solution11node_structC2Ev, symObjAddr: 0xE6C, symBinAddr: 0x100005304, symSize: 0x24 }
  - { offsetInCU: 0xFCA4, offset: 0xFCA4, size: 0x8, addend: 0x0, symName: __ZNSt3__16vectorIN8Solution11node_structENS_9allocatorIS2_EEE9__end_capB8ue170006Ev, symObjAddr: 0xE90, symBinAddr: 0x100005328, symSize: 0x28 }
  - { offsetInCU: 0xFCC9, offset: 0xFCC9, size: 0x8, addend: 0x0, symName: __ZNSt3__16vectorIN8Solution11node_structENS_9allocatorIS2_EEE22__construct_one_at_endB8ue170006IJRKS2_EEEvDpOT_, symObjAddr: 0xEB8, symBinAddr: 0x100005350, symSize: 0x90 }
  - { offsetInCU: 0xFD16, offset: 0xFD16, size: 0x8, addend: 0x0, symName: __ZNSt3__16vectorIN8Solution11node_structENS_9allocatorIS2_EEE21__push_back_slow_pathIRKS2_EEvOT_, symObjAddr: 0xF48, symBinAddr: 0x1000053E0, symSize: 0xD8 }
  - { offsetInCU: 0xFD73, offset: 0xFD73, size: 0x8, addend: 0x0, symName: __ZNSt3__117__compressed_pairIPN8Solution11node_structENS_9allocatorIS2_EEE5firstB8ue170006Ev, symObjAddr: 0x1020, symBinAddr: 0x1000054B8, symSize: 0x24 }
  - { offsetInCU: 0xFD98, offset: 0xFD98, size: 0x8, addend: 0x0, symName: __ZNSt3__122__compressed_pair_elemIPN8Solution11node_structELi0ELb0EE5__getB8ue170006Ev, symObjAddr: 0x1044, symBinAddr: 0x1000054DC, symSize: 0x14 }
  - { offsetInCU: 0xFDD6, offset: 0xFDD6, size: 0x8, addend: 0x0, symName: __ZNSt3__16vectorIN8Solution11node_structENS_9allocatorIS2_EEE21_ConstructTransactionC1B8ue170006ERS5_m, symObjAddr: 0x1058, symBinAddr: 0x1000054F0, symSize: 0x3C }
  - { offsetInCU: 0xFE1D, offset: 0xFE1D, size: 0x8, addend: 0x0, symName: __ZNSt3__116allocator_traitsINS_9allocatorIN8Solution11node_structEEEE9constructB8ue170006IS3_JRKS3_EvEEvRS4_PT_DpOT0_, symObjAddr: 0x1094, symBinAddr: 0x10000552C, symSize: 0x34 }
  - { offsetInCU: 0xFE74, offset: 0xFE74, size: 0x8, addend: 0x0, symName: __ZNSt3__16vectorIN8Solution11node_structENS_9allocatorIS2_EEE7__allocB8ue170006Ev, symObjAddr: 0x10C8, symBinAddr: 0x100005560, symSize: 0x28 }
  - { offsetInCU: 0xFE99, offset: 0xFE99, size: 0x8, addend: 0x0, symName: __ZNSt3__16vectorIN8Solution11node_structENS_9allocatorIS2_EEE21_ConstructTransactionD1B8ue170006Ev, symObjAddr: 0x1104, symBinAddr: 0x10000559C, symSize: 0x2C }
  - { offsetInCU: 0xFEC2, offset: 0xFEC2, size: 0x8, addend: 0x0, symName: __ZNSt3__16vectorIN8Solution11node_structENS_9allocatorIS2_EEE21_ConstructTransactionC2B8ue170006ERS5_m, symObjAddr: 0x1130, symBinAddr: 0x1000055C8, symSize: 0x4C }
  - { offsetInCU: 0xFF09, offset: 0xFF09, size: 0x8, addend: 0x0, symName: __ZNSt3__19allocatorIN8Solution11node_structEE9constructB8ue170006IS2_JRKS2_EEEvPT_DpOT0_, symObjAddr: 0x117C, symBinAddr: 0x100005614, symSize: 0x30 }
  - { offsetInCU: 0xFF5E, offset: 0xFF5E, size: 0x8, addend: 0x0, symName: __ZNSt3__117__compressed_pairIPN8Solution11node_structENS_9allocatorIS2_EEE6secondB8ue170006Ev, symObjAddr: 0x11AC, symBinAddr: 0x100005644, symSize: 0x24 }
  - { offsetInCU: 0xFF83, offset: 0xFF83, size: 0x8, addend: 0x0, symName: __ZNSt3__122__compressed_pair_elemINS_9allocatorIN8Solution11node_structEEELi1ELb1EE5__getB8ue170006Ev, symObjAddr: 0x11D0, symBinAddr: 0x100005668, symSize: 0x14 }
  - { offsetInCU: 0xFFA8, offset: 0xFFA8, size: 0x8, addend: 0x0, symName: __ZNSt3__16vectorIN8Solution11node_structENS_9allocatorIS2_EEE21_ConstructTransactionD2B8ue170006Ev, symObjAddr: 0x11E4, symBinAddr: 0x10000567C, symSize: 0x20 }
  - { offsetInCU: 0xFFD0, offset: 0xFFD0, size: 0x8, addend: 0x0, symName: __ZNKSt3__16vectorIN8Solution11node_structENS_9allocatorIS2_EEE11__recommendB8ue170006Em, symObjAddr: 0x1204, symBinAddr: 0x10000569C, symSize: 0xB4 }
  - { offsetInCU: 0x10024, offset: 0x10024, size: 0x8, addend: 0x0, symName: __ZNKSt3__16vectorIN8Solution11node_structENS_9allocatorIS2_EEE4sizeB8ue170006Ev, symObjAddr: 0x12B8, symBinAddr: 0x100005750, symSize: 0x28 }
  - { offsetInCU: 0x10049, offset: 0x10049, size: 0x8, addend: 0x0, symName: __ZNSt3__114__split_bufferIN8Solution11node_structERNS_9allocatorIS2_EEEC1EmmS5_, symObjAddr: 0x12E0, symBinAddr: 0x100005778, symSize: 0x44 }
  - { offsetInCU: 0x1009E, offset: 0x1009E, size: 0x8, addend: 0x0, symName: __ZNSt3__114__split_bufferIN8Solution11node_structERNS_9allocatorIS2_EEED1Ev, symObjAddr: 0x1434, symBinAddr: 0x1000058CC, symSize: 0x2C }
  - { offsetInCU: 0x100C8, offset: 0x100C8, size: 0x8, addend: 0x0, symName: __ZNKSt3__16vectorIN8Solution11node_structENS_9allocatorIS2_EEE8max_sizeEv, symObjAddr: 0x1460, symBinAddr: 0x1000058F8, symSize: 0x60 }
  - { offsetInCU: 0x100EF, offset: 0x100EF, size: 0x8, addend: 0x0, symName: __ZNKSt3__16vectorIN8Solution11node_structENS_9allocatorIS2_EEE20__throw_length_errorB8ue170006Ev, symObjAddr: 0x14C0, symBinAddr: 0x100005958, symSize: 0x1C }
  - { offsetInCU: 0x10114, offset: 0x10114, size: 0x8, addend: 0x0, symName: __ZNKSt3__16vectorIN8Solution11node_structENS_9allocatorIS2_EEE8capacityB8ue170006Ev, symObjAddr: 0x14DC, symBinAddr: 0x100005974, symSize: 0x40 }
  - { offsetInCU: 0x10143, offset: 0x10143, size: 0x8, addend: 0x0, symName: __ZNSt3__116allocator_traitsINS_9allocatorIN8Solution11node_structEEEE8max_sizeB8ue170006IS4_vEEmRKS4_, symObjAddr: 0x1574, symBinAddr: 0x100005A0C, symSize: 0x24 }
  - { offsetInCU: 0x10171, offset: 0x10171, size: 0x8, addend: 0x0, symName: __ZNKSt3__16vectorIN8Solution11node_structENS_9allocatorIS2_EEE7__allocB8ue170006Ev, symObjAddr: 0x1598, symBinAddr: 0x100005A30, symSize: 0x28 }
  - { offsetInCU: 0x10196, offset: 0x10196, size: 0x8, addend: 0x0, symName: __ZNSt3__114numeric_limitsIlE3maxB8ue170006Ev, symObjAddr: 0x15C0, symBinAddr: 0x100005A58, symSize: 0x14 }
  - { offsetInCU: 0x101BE, offset: 0x101BE, size: 0x8, addend: 0x0, symName: __ZNKSt3__16__lessIvvEclB8ue170006ImmEEbRKT_RKT0_, symObjAddr: 0x1628, symBinAddr: 0x100005AC0, symSize: 0x34 }
  - { offsetInCU: 0x10211, offset: 0x10211, size: 0x8, addend: 0x0, symName: __ZNKSt3__19allocatorIN8Solution11node_structEE8max_sizeB8ue170006Ev, symObjAddr: 0x165C, symBinAddr: 0x100005AF4, symSize: 0x18 }
  - { offsetInCU: 0x10236, offset: 0x10236, size: 0x8, addend: 0x0, symName: __ZNKSt3__117__compressed_pairIPN8Solution11node_structENS_9allocatorIS2_EEE6secondB8ue170006Ev, symObjAddr: 0x1674, symBinAddr: 0x100005B0C, symSize: 0x24 }
  - { offsetInCU: 0x1025B, offset: 0x1025B, size: 0x8, addend: 0x0, symName: __ZNKSt3__122__compressed_pair_elemINS_9allocatorIN8Solution11node_structEEELi1ELb1EE5__getB8ue170006Ev, symObjAddr: 0x1698, symBinAddr: 0x100005B30, symSize: 0x14 }
  - { offsetInCU: 0x10280, offset: 0x10280, size: 0x8, addend: 0x0, symName: __ZNSt3__123__libcpp_numeric_limitsIlLb1EE3maxB8ue170006Ev, symObjAddr: 0x16AC, symBinAddr: 0x100005B44, symSize: 0x8 }
  - { offsetInCU: 0x10294, offset: 0x10294, size: 0x8, addend: 0x0, symName: __ZNSt12length_errorC1B8ue170006EPKc, symObjAddr: 0x1718, symBinAddr: 0x100005BB0, symSize: 0x34 }
  - { offsetInCU: 0x102CB, offset: 0x102CB, size: 0x8, addend: 0x0, symName: __ZNSt12length_errorC2B8ue170006EPKc, symObjAddr: 0x174C, symBinAddr: 0x100005BE4, symSize: 0x4C }
  - { offsetInCU: 0x10302, offset: 0x10302, size: 0x8, addend: 0x0, symName: __ZNKSt3__16vectorIN8Solution11node_structENS_9allocatorIS2_EEE9__end_capB8ue170006Ev, symObjAddr: 0x1798, symBinAddr: 0x100005C30, symSize: 0x28 }
  - { offsetInCU: 0x10327, offset: 0x10327, size: 0x8, addend: 0x0, symName: __ZNKSt3__117__compressed_pairIPN8Solution11node_structENS_9allocatorIS2_EEE5firstB8ue170006Ev, symObjAddr: 0x17C0, symBinAddr: 0x100005C58, symSize: 0x24 }
  - { offsetInCU: 0x1034C, offset: 0x1034C, size: 0x8, addend: 0x0, symName: __ZNKSt3__122__compressed_pair_elemIPN8Solution11node_structELi0ELb0EE5__getB8ue170006Ev, symObjAddr: 0x17E4, symBinAddr: 0x100005C7C, symSize: 0x14 }
  - { offsetInCU: 0x10371, offset: 0x10371, size: 0x8, addend: 0x0, symName: __ZNSt3__114__split_bufferIN8Solution11node_structERNS_9allocatorIS2_EEEC2EmmS5_, symObjAddr: 0x184C, symBinAddr: 0x100005CE4, symSize: 0xE0 }
  - { offsetInCU: 0x103E3, offset: 0x103E3, size: 0x8, addend: 0x0, symName: __ZNSt3__117__compressed_pairIPN8Solution11node_structERNS_9allocatorIS2_EEEC1B8ue170006IDnS6_EEOT_OT0_, symObjAddr: 0x192C, symBinAddr: 0x100005DC4, symSize: 0x3C }
  - { offsetInCU: 0x1043A, offset: 0x1043A, size: 0x8, addend: 0x0, symName: __ZNSt3__114__split_bufferIN8Solution11node_structERNS_9allocatorIS2_EEE7__allocB8ue170006Ev, symObjAddr: 0x19A8, symBinAddr: 0x100005E40, symSize: 0x28 }
  - { offsetInCU: 0x1045F, offset: 0x1045F, size: 0x8, addend: 0x0, symName: __ZNSt3__114__split_bufferIN8Solution11node_structERNS_9allocatorIS2_EEE9__end_capB8ue170006Ev, symObjAddr: 0x19D0, symBinAddr: 0x100005E68, symSize: 0x28 }
  - { offsetInCU: 0x10484, offset: 0x10484, size: 0x8, addend: 0x0, symName: __ZNSt3__117__compressed_pairIPN8Solution11node_structERNS_9allocatorIS2_EEEC2B8ue170006IDnS6_EEOT_OT0_, symObjAddr: 0x19F8, symBinAddr: 0x100005E90, symSize: 0x48 }
  - { offsetInCU: 0x104DB, offset: 0x104DB, size: 0x8, addend: 0x0, symName: __ZNSt3__122__compressed_pair_elemIRNS_9allocatorIN8Solution11node_structEEELi1ELb0EEC2B8ue170006IS5_vEEOT_, symObjAddr: 0x1A40, symBinAddr: 0x100005ED8, symSize: 0x20 }
  - { offsetInCU: 0x1051C, offset: 0x1051C, size: 0x8, addend: 0x0, symName: __ZNSt3__19allocatorIN8Solution11node_structEE8allocateB8ue170006Em, symObjAddr: 0x1A60, symBinAddr: 0x100005EF8, symSize: 0x5C }
  - { offsetInCU: 0x1054F, offset: 0x1054F, size: 0x8, addend: 0x0, symName: __ZNSt3__117__compressed_pairIPN8Solution11node_structERNS_9allocatorIS2_EEE6secondB8ue170006Ev, symObjAddr: 0x1BC0, symBinAddr: 0x100006058, symSize: 0x28 }
  - { offsetInCU: 0x10574, offset: 0x10574, size: 0x8, addend: 0x0, symName: __ZNSt3__122__compressed_pair_elemIRNS_9allocatorIN8Solution11node_structEEELi1ELb0EE5__getB8ue170006Ev, symObjAddr: 0x1BE8, symBinAddr: 0x100006080, symSize: 0x18 }
  - { offsetInCU: 0x10599, offset: 0x10599, size: 0x8, addend: 0x0, symName: __ZNSt3__117__compressed_pairIPN8Solution11node_structERNS_9allocatorIS2_EEE5firstB8ue170006Ev, symObjAddr: 0x1C00, symBinAddr: 0x100006098, symSize: 0x24 }
  - { offsetInCU: 0x105BE, offset: 0x105BE, size: 0x8, addend: 0x0, symName: __ZNKSt3__16vectorIN8Solution11node_structENS_9allocatorIS2_EEE17__annotate_deleteB8ue170006Ev, symObjAddr: 0x1C24, symBinAddr: 0x1000060BC, symSize: 0xD4 }
  - { offsetInCU: 0x105E3, offset: 0x105E3, size: 0x8, addend: 0x0, symName: __ZNSt3__116reverse_iteratorIPN8Solution11node_structEEC1B8ue170006ES3_, symObjAddr: 0x1D70, symBinAddr: 0x100006208, symSize: 0x34 }
  - { offsetInCU: 0x1061A, offset: 0x1061A, size: 0x8, addend: 0x0, symName: __ZNKSt3__116reverse_iteratorIPN8Solution11node_structEE4baseB8ue170006Ev, symObjAddr: 0x1DA4, symBinAddr: 0x10000623C, symSize: 0x18 }
  - { offsetInCU: 0x1063F, offset: 0x1063F, size: 0x8, addend: 0x0, symName: __ZNKSt3__16vectorIN8Solution11node_structENS_9allocatorIS2_EEE14__annotate_newB8ue170006Em, symObjAddr: 0x1DF8, symBinAddr: 0x100006290, symSize: 0xC8 }
  - { offsetInCU: 0x10673, offset: 0x10673, size: 0x8, addend: 0x0, symName: __ZNKSt3__16vectorIN8Solution11node_structENS_9allocatorIS2_EEE31__annotate_contiguous_containerB8ue170006EPKvS7_S7_S7_, symObjAddr: 0x1EC0, symBinAddr: 0x100006358, symSize: 0x20 }
  - { offsetInCU: 0x106C4, offset: 0x106C4, size: 0x8, addend: 0x0, symName: __ZNKSt3__16vectorIN8Solution11node_structENS_9allocatorIS2_EEE4dataB8ue170006Ev, symObjAddr: 0x1EE0, symBinAddr: 0x100006378, symSize: 0x28 }
  - { offsetInCU: 0x1070C, offset: 0x1070C, size: 0x8, addend: 0x0, symName: __ZNKSt3__111__move_loopINS_17_ClassicAlgPolicyEEclB8ue170006INS_16reverse_iteratorIPN8Solution11node_structEEES8_S8_EENS_4pairIT_T1_EESA_T0_SB_, symObjAddr: 0x21F8, symBinAddr: 0x100006690, symSize: 0xA8 }
  - { offsetInCU: 0x1077B, offset: 0x1077B, size: 0x8, addend: 0x0, symName: __ZNSt3__18_IterOpsINS_17_ClassicAlgPolicyEE11__iter_moveB8ue170006IRNS_16reverse_iteratorIPN8Solution11node_structEEEEENS_9enable_ifIXsr12is_referenceIDTdeclsr3stdE7declvalIRT_EEEEE5valueEDTclsr3stdE4movedeclsr3stdE7declvalISC_EEEEE4typeEOSB_, symObjAddr: 0x2434, symBinAddr: 0x1000068CC, symSize: 0x28 }
  - { offsetInCU: 0x107A7, offset: 0x107A7, size: 0x8, addend: 0x0, symName: __ZNKSt3__116reverse_iteratorIPN8Solution11node_structEEdeB8ue170006Ev, symObjAddr: 0x245C, symBinAddr: 0x1000068F4, symSize: 0x28 }
  - { offsetInCU: 0x107DA, offset: 0x107DA, size: 0x8, addend: 0x0, symName: __ZNSt3__116reverse_iteratorIPN8Solution11node_structEEppB8ue170006Ev, symObjAddr: 0x2484, symBinAddr: 0x10000691C, symSize: 0x20 }
  - { offsetInCU: 0x107FF, offset: 0x107FF, size: 0x8, addend: 0x0, symName: __ZNSt3__18_IterOpsINS_17_ClassicAlgPolicyEE25__validate_iter_referenceB8ue170006IRNS_16reverse_iteratorIPN8Solution11node_structEEEEEvv, symObjAddr: 0x24A4, symBinAddr: 0x10000693C, symSize: 0x4 }
  - { offsetInCU: 0x1081D, offset: 0x1081D, size: 0x8, addend: 0x0, symName: __ZNSt3__118__unwrap_iter_implINS_16reverse_iteratorIPN8Solution11node_structEEELb0EE8__unwrapB8ue170006ES5_, symObjAddr: 0x24A8, symBinAddr: 0x100006940, symSize: 0x24 }
  - { offsetInCU: 0x10845, offset: 0x10845, size: 0x8, addend: 0x0, symName: __ZNSt3__14pairINS_16reverse_iteratorIPN8Solution11node_structEEES5_EC1B8ue170006IS5_S5_LPv0EEEOT_OT0_, symObjAddr: 0x24CC, symBinAddr: 0x100006964, symSize: 0x3C }
  - { offsetInCU: 0x108A2, offset: 0x108A2, size: 0x8, addend: 0x0, symName: __ZNSt3__14pairINS_16reverse_iteratorIPN8Solution11node_structEEES5_EC2B8ue170006IS5_S5_LPv0EEEOT_OT0_, symObjAddr: 0x2508, symBinAddr: 0x1000069A0, symSize: 0x34 }
  - { offsetInCU: 0x108FF, offset: 0x108FF, size: 0x8, addend: 0x0, symName: __ZNSt3__118__unwrap_iter_implINS_16reverse_iteratorIPN8Solution11node_structEEELb0EE8__rewrapB8ue170006ES5_S5_, symObjAddr: 0x253C, symBinAddr: 0x1000069D4, symSize: 0x2C }
  - { offsetInCU: 0x1092D, offset: 0x1092D, size: 0x8, addend: 0x0, symName: __ZNSt3__116reverse_iteratorIPN8Solution11node_structEEC2B8ue170006ES3_, symObjAddr: 0x2568, symBinAddr: 0x100006A00, symSize: 0x28 }
  - { offsetInCU: 0x10964, offset: 0x10964, size: 0x8, addend: 0x0, symName: __ZNSt3__114__split_bufferIN8Solution11node_structERNS_9allocatorIS2_EEED2Ev, symObjAddr: 0x2590, symBinAddr: 0x100006A28, symSize: 0x8C }
  - { offsetInCU: 0x1098F, offset: 0x1098F, size: 0x8, addend: 0x0, symName: __ZNSt3__114__split_bufferIN8Solution11node_structERNS_9allocatorIS2_EEE5clearB8ue170006Ev, symObjAddr: 0x261C, symBinAddr: 0x100006AB4, symSize: 0x28 }
  - { offsetInCU: 0x109B4, offset: 0x109B4, size: 0x8, addend: 0x0, symName: __ZNSt3__116allocator_traitsINS_9allocatorIN8Solution11node_structEEEE10deallocateB8ue170006ERS4_PS3_m, symObjAddr: 0x2644, symBinAddr: 0x100006ADC, symSize: 0x34 }
  - { offsetInCU: 0x109F6, offset: 0x109F6, size: 0x8, addend: 0x0, symName: __ZNKSt3__114__split_bufferIN8Solution11node_structERNS_9allocatorIS2_EEE8capacityB8ue170006Ev, symObjAddr: 0x2678, symBinAddr: 0x100006B10, symSize: 0x40 }
  - { offsetInCU: 0x10A1B, offset: 0x10A1B, size: 0x8, addend: 0x0, symName: __ZNSt3__114__split_bufferIN8Solution11node_structERNS_9allocatorIS2_EEE17__destruct_at_endB8ue170006EPS2_, symObjAddr: 0x26B8, symBinAddr: 0x100006B50, symSize: 0x2C }
  - { offsetInCU: 0x10A4D, offset: 0x10A4D, size: 0x8, addend: 0x0, symName: __ZNSt3__114__split_bufferIN8Solution11node_structERNS_9allocatorIS2_EEE17__destruct_at_endB8ue170006EPS2_NS_17integral_constantIbLb0EEE, symObjAddr: 0x26E4, symBinAddr: 0x100006B7C, symSize: 0x80 }
  - { offsetInCU: 0x10A8D, offset: 0x10A8D, size: 0x8, addend: 0x0, symName: __ZNSt3__116allocator_traitsINS_9allocatorIN8Solution11node_structEEEE7destroyB8ue170006IS3_vEEvRS4_PT_, symObjAddr: 0x2764, symBinAddr: 0x100006BFC, symSize: 0x2C }
  - { offsetInCU: 0x10ACA, offset: 0x10ACA, size: 0x8, addend: 0x0, symName: __ZNSt3__19allocatorIN8Solution11node_structEE7destroyB8ue170006EPS2_, symObjAddr: 0x2790, symBinAddr: 0x100006C28, symSize: 0x14 }
  - { offsetInCU: 0x10AFD, offset: 0x10AFD, size: 0x8, addend: 0x0, symName: __ZNSt3__19allocatorIN8Solution11node_structEE10deallocateB8ue170006EPS2_m, symObjAddr: 0x27A4, symBinAddr: 0x100006C3C, symSize: 0x44 }
  - { offsetInCU: 0x10B3E, offset: 0x10B3E, size: 0x8, addend: 0x0, symName: __ZNKSt3__114__split_bufferIN8Solution11node_structERNS_9allocatorIS2_EEE9__end_capB8ue170006Ev, symObjAddr: 0x28F0, symBinAddr: 0x100006D88, symSize: 0x28 }
  - { offsetInCU: 0x10B63, offset: 0x10B63, size: 0x8, addend: 0x0, symName: __ZNKSt3__117__compressed_pairIPN8Solution11node_structERNS_9allocatorIS2_EEE5firstB8ue170006Ev, symObjAddr: 0x2918, symBinAddr: 0x100006DB0, symSize: 0x24 }
  - { offsetInCU: 0x10B88, offset: 0x10B88, size: 0x8, addend: 0x0, symName: __ZNSt3__16vectorIiNS_9allocatorIiEEEC2B8ue170006Ev, symObjAddr: 0x293C, symBinAddr: 0x100006DD4, symSize: 0x4C }
  - { offsetInCU: 0x10BB1, offset: 0x10BB1, size: 0x8, addend: 0x0, symName: __ZNSt3__117__compressed_pairIPiNS_9allocatorIiEEEC1B8ue170006IDnNS_18__default_init_tagEEEOT_OT0_, symObjAddr: 0x2988, symBinAddr: 0x100006E20, symSize: 0x3C }
  - { offsetInCU: 0x10C08, offset: 0x10C08, size: 0x8, addend: 0x0, symName: __ZNSt3__117__compressed_pairIPiNS_9allocatorIiEEEC2B8ue170006IDnNS_18__default_init_tagEEEOT_OT0_, symObjAddr: 0x29C4, symBinAddr: 0x100006E5C, symSize: 0x40 }
  - { offsetInCU: 0x10C5F, offset: 0x10C5F, size: 0x8, addend: 0x0, symName: __ZNSt3__122__compressed_pair_elemIPiLi0ELb0EEC2B8ue170006IDnvEEOT_, symObjAddr: 0x2A04, symBinAddr: 0x100006E9C, symSize: 0x1C }
  - { offsetInCU: 0x10CA0, offset: 0x10CA0, size: 0x8, addend: 0x0, symName: __ZNSt3__122__compressed_pair_elemINS_9allocatorIiEELi1ELb1EEC2B8ue170006ENS_18__default_init_tagE, symObjAddr: 0x2A20, symBinAddr: 0x100006EB8, symSize: 0x2C }
  - { offsetInCU: 0x10CD4, offset: 0x10CD4, size: 0x8, addend: 0x0, symName: __ZNSt3__19allocatorIiEC2B8ue170006Ev, symObjAddr: 0x2A4C, symBinAddr: 0x100006EE4, symSize: 0x2C }
  - { offsetInCU: 0x10CFD, offset: 0x10CFD, size: 0x8, addend: 0x0, symName: __ZNSt3__116__non_trivial_ifILb1ENS_9allocatorIiEEEC2B8ue170006Ev, symObjAddr: 0x2A78, symBinAddr: 0x100006F10, symSize: 0x14 }
  - { offsetInCU: 0x10D26, offset: 0x10D26, size: 0x8, addend: 0x0, symName: __ZNSt3__16vectorINS0_IiNS_9allocatorIiEEEENS1_IS3_EEE11__make_iterB8ue170006EPS3_, symObjAddr: 0x2A8C, symBinAddr: 0x100006F24, symSize: 0x30 }
  - { offsetInCU: 0x10D5A, offset: 0x10D5A, size: 0x8, addend: 0x0, symName: __ZNSt3__111__wrap_iterIPNS_6vectorIiNS_9allocatorIiEEEEEC1B8ue170006ES5_, symObjAddr: 0x2ABC, symBinAddr: 0x100006F54, symSize: 0x34 }
  - { offsetInCU: 0x10D91, offset: 0x10D91, size: 0x8, addend: 0x0, symName: __ZNSt3__111__wrap_iterIPNS_6vectorIiNS_9allocatorIiEEEEEC2B8ue170006ES5_, symObjAddr: 0x2AF0, symBinAddr: 0x100006F88, symSize: 0x20 }
  - { offsetInCU: 0x10DC8, offset: 0x10DC8, size: 0x8, addend: 0x0, symName: __ZNKSt3__111__wrap_iterIPNS_6vectorIiNS_9allocatorIiEEEEE4baseB8ue170006Ev, symObjAddr: 0x2B58, symBinAddr: 0x100006FF0, symSize: 0x18 }
  - { offsetInCU: 0x10DED, offset: 0x10DED, size: 0x8, addend: 0x0, symName: __ZNSt3__16vectorIiNS_9allocatorIiEEEC2ERKS3_, symObjAddr: 0x2B70, symBinAddr: 0x100007008, symSize: 0x94 }
  - { offsetInCU: 0x10E31, offset: 0x10E31, size: 0x8, addend: 0x0, symName: __ZNSt3__116allocator_traitsINS_9allocatorIiEEE37select_on_container_copy_constructionB8ue170006IS2_vvEES2_RKS2_, symObjAddr: 0x2C04, symBinAddr: 0x10000709C, symSize: 0x10 }
  - { offsetInCU: 0x10E60, offset: 0x10E60, size: 0x8, addend: 0x0, symName: __ZNKSt3__16vectorIiNS_9allocatorIiEEE7__allocB8ue170006Ev, symObjAddr: 0x2C14, symBinAddr: 0x1000070AC, symSize: 0x28 }
  - { offsetInCU: 0x10E8A, offset: 0x10E8A, size: 0x8, addend: 0x0, symName: __ZNSt3__117__compressed_pairIPiNS_9allocatorIiEEEC1B8ue170006IDnS3_EEOT_OT0_, symObjAddr: 0x2C3C, symBinAddr: 0x1000070D4, symSize: 0x3C }
  - { offsetInCU: 0x10EE1, offset: 0x10EE1, size: 0x8, addend: 0x0, symName: __ZNSt3__16vectorIiNS_9allocatorIiEEE16__init_with_sizeB8ue170006IPiS5_EEvT_T0_m, symObjAddr: 0x2C78, symBinAddr: 0x100007110, symSize: 0xB8 }
  - { offsetInCU: 0x10F54, offset: 0x10F54, size: 0x8, addend: 0x0, symName: __ZNKSt3__16vectorIiNS_9allocatorIiEEE4sizeB8ue170006Ev, symObjAddr: 0x2D30, symBinAddr: 0x1000071C8, symSize: 0x28 }
  - { offsetInCU: 0x10F79, offset: 0x10F79, size: 0x8, addend: 0x0, symName: __ZNKSt3__117__compressed_pairIPiNS_9allocatorIiEEE6secondB8ue170006Ev, symObjAddr: 0x2D58, symBinAddr: 0x1000071F0, symSize: 0x24 }
  - { offsetInCU: 0x10F9E, offset: 0x10F9E, size: 0x8, addend: 0x0, symName: __ZNKSt3__122__compressed_pair_elemINS_9allocatorIiEELi1ELb1EE5__getB8ue170006Ev, symObjAddr: 0x2D7C, symBinAddr: 0x100007214, symSize: 0x14 }
  - { offsetInCU: 0x10FC3, offset: 0x10FC3, size: 0x8, addend: 0x0, symName: __ZNSt3__117__compressed_pairIPiNS_9allocatorIiEEEC2B8ue170006IDnS3_EEOT_OT0_, symObjAddr: 0x2D90, symBinAddr: 0x100007228, symSize: 0x44 }
  - { offsetInCU: 0x1101A, offset: 0x1101A, size: 0x8, addend: 0x0, symName: __ZNSt3__122__compressed_pair_elemINS_9allocatorIiEELi1ELb1EEC2B8ue170006IS2_vEEOT_, symObjAddr: 0x2DD4, symBinAddr: 0x10000726C, symSize: 0x18 }
  - { offsetInCU: 0x1105B, offset: 0x1105B, size: 0x8, addend: 0x0, symName: __ZNSt3__16vectorIiNS_9allocatorIiEEE16__destroy_vectorC1B8ue170006ERS3_, symObjAddr: 0x2E2C, symBinAddr: 0x1000072C4, symSize: 0x34 }
  - { offsetInCU: 0x11093, offset: 0x11093, size: 0x8, addend: 0x0, symName: __ZNSt3__16vectorIiNS_9allocatorIiEEE11__vallocateB8ue170006Em, symObjAddr: 0x2E60, symBinAddr: 0x1000072F8, symSize: 0xAC }
  - { offsetInCU: 0x110D5, offset: 0x110D5, size: 0x8, addend: 0x0, symName: __ZNSt3__16vectorIiNS_9allocatorIiEEE18__construct_at_endIPiS5_EEvT_T0_m, symObjAddr: 0x2F0C, symBinAddr: 0x1000073A4, symSize: 0x8C }
  - { offsetInCU: 0x1114A, offset: 0x1114A, size: 0x8, addend: 0x0, symName: __ZNSt3__128__exception_guard_exceptionsINS_6vectorIiNS_9allocatorIiEEE16__destroy_vectorEE10__completeB8ue170006Ev, symObjAddr: 0x2F98, symBinAddr: 0x100007430, symSize: 0x1C }
  - { offsetInCU: 0x1116F, offset: 0x1116F, size: 0x8, addend: 0x0, symName: __ZNSt3__128__exception_guard_exceptionsINS_6vectorIiNS_9allocatorIiEEE16__destroy_vectorEED1B8ue170006Ev, symObjAddr: 0x2FB4, symBinAddr: 0x10000744C, symSize: 0x2C }
  - { offsetInCU: 0x11198, offset: 0x11198, size: 0x8, addend: 0x0, symName: __ZNSt3__128__exception_guard_exceptionsINS_6vectorIiNS_9allocatorIiEEE16__destroy_vectorEEC1B8ue170006ES5_, symObjAddr: 0x2FE0, symBinAddr: 0x100007478, symSize: 0x34 }
  - { offsetInCU: 0x111CF, offset: 0x111CF, size: 0x8, addend: 0x0, symName: __ZNSt3__128__exception_guard_exceptionsINS_6vectorIiNS_9allocatorIiEEE16__destroy_vectorEEC2B8ue170006ES5_, symObjAddr: 0x3014, symBinAddr: 0x1000074AC, symSize: 0x24 }
  - { offsetInCU: 0x11206, offset: 0x11206, size: 0x8, addend: 0x0, symName: __ZNSt3__16vectorIiNS_9allocatorIiEEE16__destroy_vectorC2B8ue170006ERS3_, symObjAddr: 0x3038, symBinAddr: 0x1000074D0, symSize: 0x20 }
  - { offsetInCU: 0x1123D, offset: 0x1123D, size: 0x8, addend: 0x0, symName: __ZNKSt3__16vectorIiNS_9allocatorIiEEE8max_sizeEv, symObjAddr: 0x3058, symBinAddr: 0x1000074F0, symSize: 0x60 }
  - { offsetInCU: 0x11264, offset: 0x11264, size: 0x8, addend: 0x0, symName: __ZNKSt3__16vectorIiNS_9allocatorIiEEE20__throw_length_errorB8ue170006Ev, symObjAddr: 0x30B8, symBinAddr: 0x100007550, symSize: 0x1C }
  - { offsetInCU: 0x11289, offset: 0x11289, size: 0x8, addend: 0x0, symName: __ZNSt3__16vectorIiNS_9allocatorIiEEE7__allocB8ue170006Ev, symObjAddr: 0x3114, symBinAddr: 0x1000075AC, symSize: 0x28 }
  - { offsetInCU: 0x112AE, offset: 0x112AE, size: 0x8, addend: 0x0, symName: __ZNSt3__16vectorIiNS_9allocatorIiEEE9__end_capB8ue170006Ev, symObjAddr: 0x313C, symBinAddr: 0x1000075D4, symSize: 0x28 }
  - { offsetInCU: 0x112D3, offset: 0x112D3, size: 0x8, addend: 0x0, symName: __ZNKSt3__16vectorIiNS_9allocatorIiEEE14__annotate_newB8ue170006Em, symObjAddr: 0x3164, symBinAddr: 0x1000075FC, symSize: 0xAC }
  - { offsetInCU: 0x11307, offset: 0x11307, size: 0x8, addend: 0x0, symName: __ZNSt3__116allocator_traitsINS_9allocatorIiEEE8max_sizeB8ue170006IS2_vEEmRKS2_, symObjAddr: 0x3210, symBinAddr: 0x1000076A8, symSize: 0x24 }
  - { offsetInCU: 0x11335, offset: 0x11335, size: 0x8, addend: 0x0, symName: __ZNKSt3__19allocatorIiE8max_sizeB8ue170006Ev, symObjAddr: 0x3234, symBinAddr: 0x1000076CC, symSize: 0x14 }
  - { offsetInCU: 0x1135A, offset: 0x1135A, size: 0x8, addend: 0x0, symName: __ZNSt3__19allocatorIiE8allocateB8ue170006Em, symObjAddr: 0x3248, symBinAddr: 0x1000076E0, symSize: 0x58 }
  - { offsetInCU: 0x1138D, offset: 0x1138D, size: 0x8, addend: 0x0, symName: __ZNSt3__117__compressed_pairIPiNS_9allocatorIiEEE6secondB8ue170006Ev, symObjAddr: 0x32A0, symBinAddr: 0x100007738, symSize: 0x24 }
  - { offsetInCU: 0x113B2, offset: 0x113B2, size: 0x8, addend: 0x0, symName: __ZNSt3__122__compressed_pair_elemINS_9allocatorIiEELi1ELb1EE5__getB8ue170006Ev, symObjAddr: 0x32C4, symBinAddr: 0x10000775C, symSize: 0x14 }
  - { offsetInCU: 0x113D7, offset: 0x113D7, size: 0x8, addend: 0x0, symName: __ZNSt3__117__compressed_pairIPiNS_9allocatorIiEEE5firstB8ue170006Ev, symObjAddr: 0x32D8, symBinAddr: 0x100007770, symSize: 0x24 }
  - { offsetInCU: 0x113FC, offset: 0x113FC, size: 0x8, addend: 0x0, symName: __ZNSt3__122__compressed_pair_elemIPiLi0ELb0EE5__getB8ue170006Ev, symObjAddr: 0x32FC, symBinAddr: 0x100007794, symSize: 0x14 }
  - { offsetInCU: 0x11421, offset: 0x11421, size: 0x8, addend: 0x0, symName: __ZNKSt3__16vectorIiNS_9allocatorIiEEE31__annotate_contiguous_containerB8ue170006EPKvS5_S5_S5_, symObjAddr: 0x3310, symBinAddr: 0x1000077A8, symSize: 0x20 }
  - { offsetInCU: 0x11472, offset: 0x11472, size: 0x8, addend: 0x0, symName: __ZNKSt3__16vectorIiNS_9allocatorIiEEE4dataB8ue170006Ev, symObjAddr: 0x3330, symBinAddr: 0x1000077C8, symSize: 0x28 }
  - { offsetInCU: 0x11497, offset: 0x11497, size: 0x8, addend: 0x0, symName: __ZNKSt3__16vectorIiNS_9allocatorIiEEE8capacityB8ue170006Ev, symObjAddr: 0x3358, symBinAddr: 0x1000077F0, symSize: 0x40 }
  - { offsetInCU: 0x114BC, offset: 0x114BC, size: 0x8, addend: 0x0, symName: __ZNKSt3__16vectorIiNS_9allocatorIiEEE9__end_capB8ue170006Ev, symObjAddr: 0x33AC, symBinAddr: 0x100007844, symSize: 0x28 }
  - { offsetInCU: 0x114E1, offset: 0x114E1, size: 0x8, addend: 0x0, symName: __ZNKSt3__117__compressed_pairIPiNS_9allocatorIiEEE5firstB8ue170006Ev, symObjAddr: 0x33D4, symBinAddr: 0x10000786C, symSize: 0x24 }
  - { offsetInCU: 0x11506, offset: 0x11506, size: 0x8, addend: 0x0, symName: __ZNKSt3__122__compressed_pair_elemIPiLi0ELb0EE5__getB8ue170006Ev, symObjAddr: 0x33F8, symBinAddr: 0x100007890, symSize: 0x14 }
  - { offsetInCU: 0x11544, offset: 0x11544, size: 0x8, addend: 0x0, symName: __ZNSt3__16vectorIiNS_9allocatorIiEEE21_ConstructTransactionC1B8ue170006ERS3_m, symObjAddr: 0x340C, symBinAddr: 0x1000078A4, symSize: 0x3C }
  - { offsetInCU: 0x1158B, offset: 0x1158B, size: 0x8, addend: 0x0, symName: __ZNSt3__16vectorIiNS_9allocatorIiEEE21_ConstructTransactionD1B8ue170006Ev, symObjAddr: 0x34C8, symBinAddr: 0x100007960, symSize: 0x2C }
  - { offsetInCU: 0x115B4, offset: 0x115B4, size: 0x8, addend: 0x0, symName: __ZNSt3__16vectorIiNS_9allocatorIiEEE21_ConstructTransactionC2B8ue170006ERS3_m, symObjAddr: 0x34F4, symBinAddr: 0x10000798C, symSize: 0x44 }
  - { offsetInCU: 0x11619, offset: 0x11619, size: 0x8, addend: 0x0, symName: __ZNSt3__14pairIPiS1_EC1B8ue170006IS1_S1_LPv0EEEOT_OT0_, symObjAddr: 0x3668, symBinAddr: 0x100007B00, symSize: 0x3C }
  - { offsetInCU: 0x11676, offset: 0x11676, size: 0x8, addend: 0x0, symName: __ZNSt3__14pairIPiS1_EC2B8ue170006IS1_S1_LPv0EEEOT_OT0_, symObjAddr: 0x36A4, symBinAddr: 0x100007B3C, symSize: 0x34 }
  - { offsetInCU: 0x116DD, offset: 0x116DD, size: 0x8, addend: 0x0, symName: __ZNKSt3__114__copy_trivialclB8ue170006IiiLi0EEENS_4pairIPT_PT0_EES4_S4_S6_, symObjAddr: 0x3854, symBinAddr: 0x100007CEC, symSize: 0x48 }
  - { offsetInCU: 0x11744, offset: 0x11744, size: 0x8, addend: 0x0, symName: __ZNSt3__14pairIPiS1_EC1B8ue170006IRS1_S1_LPv0EEEOT_OT0_, symObjAddr: 0x39E4, symBinAddr: 0x100007E7C, symSize: 0x3C }
  - { offsetInCU: 0x117A1, offset: 0x117A1, size: 0x8, addend: 0x0, symName: __ZNSt3__14pairIPiS1_EC2B8ue170006IRS1_S1_LPv0EEEOT_OT0_, symObjAddr: 0x3A20, symBinAddr: 0x100007EB8, symSize: 0x34 }
  - { offsetInCU: 0x117FE, offset: 0x117FE, size: 0x8, addend: 0x0, symName: __ZNSt3__118__unwrap_iter_implIPiLb1EE8__unwrapB8ue170006ES1_, symObjAddr: 0x3A54, symBinAddr: 0x100007EEC, symSize: 0x24 }
  - { offsetInCU: 0x11821, offset: 0x11821, size: 0x8, addend: 0x0, symName: __ZNSt3__118__unwrap_iter_implIPiLb1EE8__rewrapB8ue170006ES1_S1_, symObjAddr: 0x3A78, symBinAddr: 0x100007F10, symSize: 0x50 }
  - { offsetInCU: 0x11852, offset: 0x11852, size: 0x8, addend: 0x0, symName: __ZNSt3__16vectorIiNS_9allocatorIiEEE21_ConstructTransactionD2B8ue170006Ev, symObjAddr: 0x3AC8, symBinAddr: 0x100007F60, symSize: 0x20 }
  - { offsetInCU: 0x1187B, offset: 0x1187B, size: 0x8, addend: 0x0, symName: __ZNSt3__128__exception_guard_exceptionsINS_6vectorIiNS_9allocatorIiEEE16__destroy_vectorEED2B8ue170006Ev, symObjAddr: 0x3AE8, symBinAddr: 0x100007F80, symSize: 0x50 }
  - { offsetInCU: 0x118A4, offset: 0x118A4, size: 0x8, addend: 0x0, symName: __ZNSt3__16vectorIiNS_9allocatorIiEEE16__destroy_vectorclB8ue170006Ev, symObjAddr: 0x3B38, symBinAddr: 0x100007FD0, symSize: 0x90 }
  - { offsetInCU: 0x118C9, offset: 0x118C9, size: 0x8, addend: 0x0, symName: __ZNSt3__16vectorIiNS_9allocatorIiEEE7__clearB8ue170006Ev, symObjAddr: 0x3BC8, symBinAddr: 0x100008060, symSize: 0x28 }
  - { offsetInCU: 0x118EE, offset: 0x118EE, size: 0x8, addend: 0x0, symName: __ZNKSt3__16vectorIiNS_9allocatorIiEEE17__annotate_deleteB8ue170006Ev, symObjAddr: 0x3BF0, symBinAddr: 0x100008088, symSize: 0xB8 }
  - { offsetInCU: 0x11913, offset: 0x11913, size: 0x8, addend: 0x0, symName: __ZNSt3__116allocator_traitsINS_9allocatorIiEEE10deallocateB8ue170006ERS2_Pim, symObjAddr: 0x3CA8, symBinAddr: 0x100008140, symSize: 0x34 }
  - { offsetInCU: 0x11955, offset: 0x11955, size: 0x8, addend: 0x0, symName: __ZNSt3__16vectorIiNS_9allocatorIiEEE22__base_destruct_at_endB8ue170006EPi, symObjAddr: 0x3CDC, symBinAddr: 0x100008174, symSize: 0x8C }
  - { offsetInCU: 0x11998, offset: 0x11998, size: 0x8, addend: 0x0, symName: __ZNSt3__116allocator_traitsINS_9allocatorIiEEE7destroyB8ue170006IivEEvRS2_PT_, symObjAddr: 0x3D68, symBinAddr: 0x100008200, symSize: 0x2C }
  - { offsetInCU: 0x119D5, offset: 0x119D5, size: 0x8, addend: 0x0, symName: __ZNSt3__19allocatorIiE7destroyB8ue170006EPi, symObjAddr: 0x3D94, symBinAddr: 0x10000822C, symSize: 0x14 }
  - { offsetInCU: 0x11A08, offset: 0x11A08, size: 0x8, addend: 0x0, symName: __ZNSt3__19allocatorIiE10deallocateB8ue170006EPim, symObjAddr: 0x3DA8, symBinAddr: 0x100008240, symSize: 0x40 }
  - { offsetInCU: 0x11A48, offset: 0x11A48, size: 0x8, addend: 0x0, symName: __ZNKSt3__16vectorIiNS_9allocatorIiEEE5beginB8ue170006Ev, symObjAddr: 0x3E94, symBinAddr: 0x10000832C, symSize: 0x30 }
  - { offsetInCU: 0x11A6E, offset: 0x11A6E, size: 0x8, addend: 0x0, symName: __ZNKSt3__16vectorIiNS_9allocatorIiEEE3endB8ue170006Ev, symObjAddr: 0x3EC4, symBinAddr: 0x10000835C, symSize: 0x30 }
  - { offsetInCU: 0x11A95, offset: 0x11A95, size: 0x8, addend: 0x0, symName: __ZNKSt3__111__wrap_iterIPKiE4baseB8ue170006Ev, symObjAddr: 0x3F3C, symBinAddr: 0x1000083D4, symSize: 0x18 }
  - { offsetInCU: 0x11ABA, offset: 0x11ABA, size: 0x8, addend: 0x0, symName: __ZNSt3__118__unwrap_iter_implINS_11__wrap_iterIPKiEELb1EE8__rewrapB8ue170006ES4_S3_, symObjAddr: 0x4054, symBinAddr: 0x1000084EC, symSize: 0x5C }
  - { offsetInCU: 0x11AEB, offset: 0x11AEB, size: 0x8, addend: 0x0, symName: __ZNKSt3__111__wrap_iterIPKiEplB8ue170006El, symObjAddr: 0x40B0, symBinAddr: 0x100008548, symSize: 0x3C }
  - { offsetInCU: 0x11B2C, offset: 0x11B2C, size: 0x8, addend: 0x0, symName: __ZNSt3__111__wrap_iterIPKiEpLB8ue170006El, symObjAddr: 0x4110, symBinAddr: 0x1000085A8, symSize: 0x28 }
  - { offsetInCU: 0x11B69, offset: 0x11B69, size: 0x8, addend: 0x0, symName: __ZNSt3__119__to_address_helperINS_11__wrap_iterIPKiEEvE6__callB8ue170006ERKS4_, symObjAddr: 0x4138, symBinAddr: 0x1000085D0, symSize: 0x30 }
  - { offsetInCU: 0x11B8C, offset: 0x11B8C, size: 0x8, addend: 0x0, symName: __ZNSt3__114pointer_traitsINS_11__wrap_iterIPKiEEE10to_addressB8ue170006ES4_, symObjAddr: 0x4168, symBinAddr: 0x100008600, symSize: 0x2C }
  - { offsetInCU: 0x11BB9, offset: 0x11BB9, size: 0x8, addend: 0x0, symName: __ZNKSt3__110__identityclB8ue170006IRKiEEOT_S5_, symObjAddr: 0x41D4, symBinAddr: 0x10000866C, symSize: 0x18 }
  - { offsetInCU: 0x11BF5, offset: 0x11BF5, size: 0x8, addend: 0x0, symName: __ZNSt3__118__unwrap_iter_implINS_11__wrap_iterIPKiEELb1EE8__unwrapB8ue170006ES4_, symObjAddr: 0x41EC, symBinAddr: 0x100008684, symSize: 0x28 }
  - { offsetInCU: 0x11C18, offset: 0x11C18, size: 0x8, addend: 0x0, symName: __ZNKSt3__16vectorIiNS_9allocatorIiEEE11__make_iterB8ue170006EPKi, symObjAddr: 0x4214, symBinAddr: 0x1000086AC, symSize: 0x30 }
  - { offsetInCU: 0x11C4C, offset: 0x11C4C, size: 0x8, addend: 0x0, symName: __ZNSt3__111__wrap_iterIPKiEC1B8ue170006ES2_, symObjAddr: 0x4244, symBinAddr: 0x1000086DC, symSize: 0x34 }
  - { offsetInCU: 0x11C83, offset: 0x11C83, size: 0x8, addend: 0x0, symName: __ZNSt3__111__wrap_iterIPKiEC2B8ue170006ES2_, symObjAddr: 0x4278, symBinAddr: 0x100008710, symSize: 0x20 }
  - { offsetInCU: 0x11CBA, offset: 0x11CBA, size: 0x8, addend: 0x0, symName: __ZNSt3__16vectorIiNS_9allocatorIiEEE22__construct_one_at_endB8ue170006IJRKiEEEvDpOT_, symObjAddr: 0x4298, symBinAddr: 0x100008730, symSize: 0x90 }
  - { offsetInCU: 0x11D07, offset: 0x11D07, size: 0x8, addend: 0x0, symName: __ZNSt3__16vectorIiNS_9allocatorIiEEE21__push_back_slow_pathIRKiEEvOT_, symObjAddr: 0x4328, symBinAddr: 0x1000087C0, symSize: 0xD8 }
  - { offsetInCU: 0x11D64, offset: 0x11D64, size: 0x8, addend: 0x0, symName: __ZNSt3__116allocator_traitsINS_9allocatorIiEEE9constructB8ue170006IiJRKiEvEEvRS2_PT_DpOT0_, symObjAddr: 0x4400, symBinAddr: 0x100008898, symSize: 0x34 }
  - { offsetInCU: 0x11DBB, offset: 0x11DBB, size: 0x8, addend: 0x0, symName: __ZNSt3__19allocatorIiE9constructB8ue170006IiJRKiEEEvPT_DpOT0_, symObjAddr: 0x4434, symBinAddr: 0x1000088CC, symSize: 0x28 }
  - { offsetInCU: 0x11E0F, offset: 0x11E0F, size: 0x8, addend: 0x0, symName: __ZNKSt3__16vectorIiNS_9allocatorIiEEE11__recommendB8ue170006Em, symObjAddr: 0x445C, symBinAddr: 0x1000088F4, symSize: 0xB4 }
  - { offsetInCU: 0x11E63, offset: 0x11E63, size: 0x8, addend: 0x0, symName: __ZNSt3__114__split_bufferIiRNS_9allocatorIiEEEC1EmmS3_, symObjAddr: 0x4510, symBinAddr: 0x1000089A8, symSize: 0x44 }
  - { offsetInCU: 0x11EB8, offset: 0x11EB8, size: 0x8, addend: 0x0, symName: __ZNSt3__114__split_bufferIiRNS_9allocatorIiEEED1Ev, symObjAddr: 0x4664, symBinAddr: 0x100008AFC, symSize: 0x2C }
  - { offsetInCU: 0x11EE3, offset: 0x11EE3, size: 0x8, addend: 0x0, symName: __ZNSt3__114__split_bufferIiRNS_9allocatorIiEEEC2EmmS3_, symObjAddr: 0x4690, symBinAddr: 0x100008B28, symSize: 0xD4 }
  - { offsetInCU: 0x11F55, offset: 0x11F55, size: 0x8, addend: 0x0, symName: __ZNSt3__117__compressed_pairIPiRNS_9allocatorIiEEEC1B8ue170006IDnS4_EEOT_OT0_, symObjAddr: 0x4764, symBinAddr: 0x100008BFC, symSize: 0x3C }
  - { offsetInCU: 0x11FAC, offset: 0x11FAC, size: 0x8, addend: 0x0, symName: __ZNSt3__114__split_bufferIiRNS_9allocatorIiEEE7__allocB8ue170006Ev, symObjAddr: 0x47A0, symBinAddr: 0x100008C38, symSize: 0x28 }
  - { offsetInCU: 0x11FD1, offset: 0x11FD1, size: 0x8, addend: 0x0, symName: __ZNSt3__114__split_bufferIiRNS_9allocatorIiEEE9__end_capB8ue170006Ev, symObjAddr: 0x47C8, symBinAddr: 0x100008C60, symSize: 0x28 }
  - { offsetInCU: 0x11FF6, offset: 0x11FF6, size: 0x8, addend: 0x0, symName: __ZNSt3__117__compressed_pairIPiRNS_9allocatorIiEEEC2B8ue170006IDnS4_EEOT_OT0_, symObjAddr: 0x47F0, symBinAddr: 0x100008C88, symSize: 0x48 }
  - { offsetInCU: 0x1204D, offset: 0x1204D, size: 0x8, addend: 0x0, symName: __ZNSt3__122__compressed_pair_elemIRNS_9allocatorIiEELi1ELb0EEC2B8ue170006IS3_vEEOT_, symObjAddr: 0x4838, symBinAddr: 0x100008CD0, symSize: 0x20 }
  - { offsetInCU: 0x1208E, offset: 0x1208E, size: 0x8, addend: 0x0, symName: __ZNSt3__117__compressed_pairIPiRNS_9allocatorIiEEE6secondB8ue170006Ev, symObjAddr: 0x4858, symBinAddr: 0x100008CF0, symSize: 0x28 }
  - { offsetInCU: 0x120B3, offset: 0x120B3, size: 0x8, addend: 0x0, symName: __ZNSt3__122__compressed_pair_elemIRNS_9allocatorIiEELi1ELb0EE5__getB8ue170006Ev, symObjAddr: 0x4880, symBinAddr: 0x100008D18, symSize: 0x18 }
  - { offsetInCU: 0x120D8, offset: 0x120D8, size: 0x8, addend: 0x0, symName: __ZNSt3__117__compressed_pairIPiRNS_9allocatorIiEEE5firstB8ue170006Ev, symObjAddr: 0x4898, symBinAddr: 0x100008D30, symSize: 0x24 }
  - { offsetInCU: 0x120FD, offset: 0x120FD, size: 0x8, addend: 0x0, symName: __ZNSt3__116reverse_iteratorIPiEC1B8ue170006ES1_, symObjAddr: 0x4934, symBinAddr: 0x100008DCC, symSize: 0x34 }
  - { offsetInCU: 0x12134, offset: 0x12134, size: 0x8, addend: 0x0, symName: __ZNKSt3__116reverse_iteratorIPiE4baseB8ue170006Ev, symObjAddr: 0x4968, symBinAddr: 0x100008E00, symSize: 0x18 }
  - { offsetInCU: 0x12172, offset: 0x12172, size: 0x8, addend: 0x0, symName: __ZNKSt3__111__move_loopINS_17_ClassicAlgPolicyEEclB8ue170006INS_16reverse_iteratorIPiEES6_S6_EENS_4pairIT_T1_EES8_T0_S9_, symObjAddr: 0x4CAC, symBinAddr: 0x100009144, symSize: 0xA0 }
  - { offsetInCU: 0x121E1, offset: 0x121E1, size: 0x8, addend: 0x0, symName: __ZNSt3__18_IterOpsINS_17_ClassicAlgPolicyEE11__iter_moveB8ue170006IRNS_16reverse_iteratorIPiEEEENS_9enable_ifIXsr12is_referenceIDTdeclsr3stdE7declvalIRT_EEEEE5valueEDTclsr3stdE4movedeclsr3stdE7declvalISA_EEEEE4typeEOS9_, symObjAddr: 0x4EE0, symBinAddr: 0x100009378, symSize: 0x28 }
  - { offsetInCU: 0x1220D, offset: 0x1220D, size: 0x8, addend: 0x0, symName: __ZNKSt3__116reverse_iteratorIPiEdeB8ue170006Ev, symObjAddr: 0x4F08, symBinAddr: 0x1000093A0, symSize: 0x28 }
  - { offsetInCU: 0x12240, offset: 0x12240, size: 0x8, addend: 0x0, symName: __ZNSt3__116reverse_iteratorIPiEppB8ue170006Ev, symObjAddr: 0x4F30, symBinAddr: 0x1000093C8, symSize: 0x20 }
  - { offsetInCU: 0x12265, offset: 0x12265, size: 0x8, addend: 0x0, symName: __ZNSt3__18_IterOpsINS_17_ClassicAlgPolicyEE25__validate_iter_referenceB8ue170006IRNS_16reverse_iteratorIPiEEEEvv, symObjAddr: 0x4F50, symBinAddr: 0x1000093E8, symSize: 0x4 }
  - { offsetInCU: 0x12283, offset: 0x12283, size: 0x8, addend: 0x0, symName: __ZNSt3__118__unwrap_iter_implINS_16reverse_iteratorIPiEELb0EE8__unwrapB8ue170006ES3_, symObjAddr: 0x4F54, symBinAddr: 0x1000093EC, symSize: 0x24 }
  - { offsetInCU: 0x122AB, offset: 0x122AB, size: 0x8, addend: 0x0, symName: __ZNSt3__14pairINS_16reverse_iteratorIPiEES3_EC1B8ue170006IS3_S3_LPv0EEEOT_OT0_, symObjAddr: 0x4F78, symBinAddr: 0x100009410, symSize: 0x3C }
  - { offsetInCU: 0x12308, offset: 0x12308, size: 0x8, addend: 0x0, symName: __ZNSt3__14pairINS_16reverse_iteratorIPiEES3_EC2B8ue170006IS3_S3_LPv0EEEOT_OT0_, symObjAddr: 0x4FB4, symBinAddr: 0x10000944C, symSize: 0x34 }
  - { offsetInCU: 0x12365, offset: 0x12365, size: 0x8, addend: 0x0, symName: __ZNSt3__118__unwrap_iter_implINS_16reverse_iteratorIPiEELb0EE8__rewrapB8ue170006ES3_S3_, symObjAddr: 0x4FE8, symBinAddr: 0x100009480, symSize: 0x2C }
  - { offsetInCU: 0x12393, offset: 0x12393, size: 0x8, addend: 0x0, symName: __ZNSt3__116reverse_iteratorIPiEC2B8ue170006ES1_, symObjAddr: 0x5014, symBinAddr: 0x1000094AC, symSize: 0x28 }
  - { offsetInCU: 0x123CA, offset: 0x123CA, size: 0x8, addend: 0x0, symName: __ZNSt3__114__split_bufferIiRNS_9allocatorIiEEED2Ev, symObjAddr: 0x503C, symBinAddr: 0x1000094D4, symSize: 0x8C }
  - { offsetInCU: 0x123F5, offset: 0x123F5, size: 0x8, addend: 0x0, symName: __ZNSt3__114__split_bufferIiRNS_9allocatorIiEEE5clearB8ue170006Ev, symObjAddr: 0x50C8, symBinAddr: 0x100009560, symSize: 0x28 }
  - { offsetInCU: 0x1241A, offset: 0x1241A, size: 0x8, addend: 0x0, symName: __ZNKSt3__114__split_bufferIiRNS_9allocatorIiEEE8capacityB8ue170006Ev, symObjAddr: 0x50F0, symBinAddr: 0x100009588, symSize: 0x40 }
  - { offsetInCU: 0x1243F, offset: 0x1243F, size: 0x8, addend: 0x0, symName: __ZNSt3__114__split_bufferIiRNS_9allocatorIiEEE17__destruct_at_endB8ue170006EPi, symObjAddr: 0x5130, symBinAddr: 0x1000095C8, symSize: 0x2C }
  - { offsetInCU: 0x12471, offset: 0x12471, size: 0x8, addend: 0x0, symName: __ZNSt3__114__split_bufferIiRNS_9allocatorIiEEE17__destruct_at_endB8ue170006EPiNS_17integral_constantIbLb0EEE, symObjAddr: 0x515C, symBinAddr: 0x1000095F4, symSize: 0x80 }
  - { offsetInCU: 0x124B1, offset: 0x124B1, size: 0x8, addend: 0x0, symName: __ZNKSt3__114__split_bufferIiRNS_9allocatorIiEEE9__end_capB8ue170006Ev, symObjAddr: 0x51DC, symBinAddr: 0x100009674, symSize: 0x28 }
  - { offsetInCU: 0x124D6, offset: 0x124D6, size: 0x8, addend: 0x0, symName: __ZNKSt3__117__compressed_pairIPiRNS_9allocatorIiEEE5firstB8ue170006Ev, symObjAddr: 0x5204, symBinAddr: 0x10000969C, symSize: 0x24 }
  - { offsetInCU: 0x124FB, offset: 0x124FB, size: 0x8, addend: 0x0, symName: __ZNSt3__16vectorIiNS_9allocatorIiEEEC2Em, symObjAddr: 0x5228, symBinAddr: 0x1000096C0, symSize: 0xD4 }
  - { offsetInCU: 0x1254A, offset: 0x1254A, size: 0x8, addend: 0x0, symName: __ZNSt3__16vectorIiNS_9allocatorIiEEE18__construct_at_endEm, symObjAddr: 0x52FC, symBinAddr: 0x100009794, symSize: 0xC8 }
  - { offsetInCU: 0x125BB, offset: 0x125BB, size: 0x8, addend: 0x0, symName: __ZNSt3__116allocator_traitsINS_9allocatorIiEEE9constructB8ue170006IiJEvEEvRS2_PT_DpOT0_, symObjAddr: 0x53C4, symBinAddr: 0x10000985C, symSize: 0x2C }
  - { offsetInCU: 0x125FD, offset: 0x125FD, size: 0x8, addend: 0x0, symName: __ZNSt3__19allocatorIiE9constructB8ue170006IiJEEEvPT_DpOT0_, symObjAddr: 0x53F0, symBinAddr: 0x100009888, symSize: 0x1C }
  - { offsetInCU: 0x1263E, offset: 0x1263E, size: 0x8, addend: 0x0, symName: __ZNSt3__16vectorIN8Solution11node_structENS_9allocatorIS2_EEEC2ERKS5_, symObjAddr: 0x540C, symBinAddr: 0x1000098A4, symSize: 0x94 }
  - { offsetInCU: 0x12678, offset: 0x12678, size: 0x8, addend: 0x0, symName: __ZNSt3__116allocator_traitsINS_9allocatorIN8Solution11node_structEEEE37select_on_container_copy_constructionB8ue170006IS4_vvEES4_RKS4_, symObjAddr: 0x54A0, symBinAddr: 0x100009938, symSize: 0x10 }
  - { offsetInCU: 0x126AC, offset: 0x126AC, size: 0x8, addend: 0x0, symName: __ZNSt3__117__compressed_pairIPN8Solution11node_structENS_9allocatorIS2_EEEC1B8ue170006IDnS5_EEOT_OT0_, symObjAddr: 0x54B0, symBinAddr: 0x100009948, symSize: 0x3C }
  - { offsetInCU: 0x12703, offset: 0x12703, size: 0x8, addend: 0x0, symName: __ZNSt3__16vectorIN8Solution11node_structENS_9allocatorIS2_EEE16__init_with_sizeB8ue170006IPS2_S7_EEvT_T0_m, symObjAddr: 0x54EC, symBinAddr: 0x100009984, symSize: 0xB8 }
  - { offsetInCU: 0x12776, offset: 0x12776, size: 0x8, addend: 0x0, symName: __ZNSt3__117__compressed_pairIPN8Solution11node_structENS_9allocatorIS2_EEEC2B8ue170006IDnS5_EEOT_OT0_, symObjAddr: 0x55A4, symBinAddr: 0x100009A3C, symSize: 0x44 }
  - { offsetInCU: 0x127CD, offset: 0x127CD, size: 0x8, addend: 0x0, symName: __ZNSt3__122__compressed_pair_elemINS_9allocatorIN8Solution11node_structEEELi1ELb1EEC2B8ue170006IS4_vEEOT_, symObjAddr: 0x55E8, symBinAddr: 0x100009A80, symSize: 0x18 }
  - { offsetInCU: 0x1280E, offset: 0x1280E, size: 0x8, addend: 0x0, symName: __ZNSt3__16vectorIN8Solution11node_structENS_9allocatorIS2_EEE16__destroy_vectorC1B8ue170006ERS5_, symObjAddr: 0x5640, symBinAddr: 0x100009AD8, symSize: 0x34 }
  - { offsetInCU: 0x12846, offset: 0x12846, size: 0x8, addend: 0x0, symName: __ZNSt3__16vectorIN8Solution11node_structENS_9allocatorIS2_EEE11__vallocateB8ue170006Em, symObjAddr: 0x5674, symBinAddr: 0x100009B0C, symSize: 0xB4 }
  - { offsetInCU: 0x12888, offset: 0x12888, size: 0x8, addend: 0x0, symName: __ZNSt3__16vectorIN8Solution11node_structENS_9allocatorIS2_EEE18__construct_at_endIPS2_S7_EEvT_T0_m, symObjAddr: 0x5728, symBinAddr: 0x100009BC0, symSize: 0x8C }
  - { offsetInCU: 0x128FD, offset: 0x128FD, size: 0x8, addend: 0x0, symName: __ZNSt3__128__exception_guard_exceptionsINS_6vectorIN8Solution11node_structENS_9allocatorIS3_EEE16__destroy_vectorEE10__completeB8ue170006Ev, symObjAddr: 0x57B4, symBinAddr: 0x100009C4C, symSize: 0x1C }
  - { offsetInCU: 0x12922, offset: 0x12922, size: 0x8, addend: 0x0, symName: __ZNSt3__128__exception_guard_exceptionsINS_6vectorIN8Solution11node_structENS_9allocatorIS3_EEE16__destroy_vectorEED1B8ue170006Ev, symObjAddr: 0x57D0, symBinAddr: 0x100009C68, symSize: 0x2C }
  - { offsetInCU: 0x1294B, offset: 0x1294B, size: 0x8, addend: 0x0, symName: __ZNSt3__128__exception_guard_exceptionsINS_6vectorIN8Solution11node_structENS_9allocatorIS3_EEE16__destroy_vectorEEC1B8ue170006ES7_, symObjAddr: 0x57FC, symBinAddr: 0x100009C94, symSize: 0x34 }
  - { offsetInCU: 0x12982, offset: 0x12982, size: 0x8, addend: 0x0, symName: __ZNSt3__128__exception_guard_exceptionsINS_6vectorIN8Solution11node_structENS_9allocatorIS3_EEE16__destroy_vectorEEC2B8ue170006ES7_, symObjAddr: 0x5830, symBinAddr: 0x100009CC8, symSize: 0x24 }
  - { offsetInCU: 0x129B9, offset: 0x129B9, size: 0x8, addend: 0x0, symName: __ZNSt3__16vectorIN8Solution11node_structENS_9allocatorIS2_EEE16__destroy_vectorC2B8ue170006ERS5_, symObjAddr: 0x5854, symBinAddr: 0x100009CEC, symSize: 0x20 }
  - { offsetInCU: 0x12A0F, offset: 0x12A0F, size: 0x8, addend: 0x0, symName: __ZNSt3__14pairIPN8Solution11node_structES3_EC1B8ue170006IS3_S3_LPv0EEEOT_OT0_, symObjAddr: 0x5A24, symBinAddr: 0x100009EBC, symSize: 0x3C }
  - { offsetInCU: 0x12A6C, offset: 0x12A6C, size: 0x8, addend: 0x0, symName: __ZNSt3__14pairIPN8Solution11node_structES3_EC2B8ue170006IS3_S3_LPv0EEEOT_OT0_, symObjAddr: 0x5A60, symBinAddr: 0x100009EF8, symSize: 0x34 }
  - { offsetInCU: 0x12AC9, offset: 0x12AC9, size: 0x8, addend: 0x0, symName: __ZNKSt3__114__copy_trivialclB8ue170006IN8Solution11node_structES3_Li0EEENS_4pairIPT_PT0_EES6_S6_S8_, symObjAddr: 0x5C10, symBinAddr: 0x10000A0A8, symSize: 0x48 }
  - { offsetInCU: 0x12B30, offset: 0x12B30, size: 0x8, addend: 0x0, symName: __ZNSt3__14pairIPN8Solution11node_structES3_EC1B8ue170006IRS3_S3_LPv0EEEOT_OT0_, symObjAddr: 0x5DAC, symBinAddr: 0x10000A244, symSize: 0x3C }
  - { offsetInCU: 0x12B8D, offset: 0x12B8D, size: 0x8, addend: 0x0, symName: __ZNSt3__14pairIPN8Solution11node_structES3_EC2B8ue170006IRS3_S3_LPv0EEEOT_OT0_, symObjAddr: 0x5DE8, symBinAddr: 0x10000A280, symSize: 0x34 }
  - { offsetInCU: 0x12BEA, offset: 0x12BEA, size: 0x8, addend: 0x0, symName: __ZNSt3__118__unwrap_iter_implIPN8Solution11node_structELb1EE8__unwrapB8ue170006ES3_, symObjAddr: 0x5E1C, symBinAddr: 0x10000A2B4, symSize: 0x24 }
  - { offsetInCU: 0x12C0D, offset: 0x12C0D, size: 0x8, addend: 0x0, symName: __ZNSt3__118__unwrap_iter_implIPN8Solution11node_structELb1EE8__rewrapB8ue170006ES3_S3_, symObjAddr: 0x5E40, symBinAddr: 0x10000A2D8, symSize: 0x58 }
  - { offsetInCU: 0x12C3E, offset: 0x12C3E, size: 0x8, addend: 0x0, symName: __ZNSt3__128__exception_guard_exceptionsINS_6vectorIN8Solution11node_structENS_9allocatorIS3_EEE16__destroy_vectorEED2B8ue170006Ev, symObjAddr: 0x5E98, symBinAddr: 0x10000A330, symSize: 0x50 }
  - { offsetInCU: 0x12C67, offset: 0x12C67, size: 0x8, addend: 0x0, symName: __ZNSt3__16vectorIN8Solution11node_structENS_9allocatorIS2_EEE16__destroy_vectorclB8ue170006Ev, symObjAddr: 0x5EE8, symBinAddr: 0x10000A380, symSize: 0x90 }
  - { offsetInCU: 0x12C8C, offset: 0x12C8C, size: 0x8, addend: 0x0, symName: __ZNSt3__16vectorIN8Solution11node_structENS_9allocatorIS2_EEE7__clearB8ue170006Ev, symObjAddr: 0x5F78, symBinAddr: 0x10000A410, symSize: 0x28 }
  - { offsetInCU: 0x12CB1, offset: 0x12CB1, size: 0x8, addend: 0x0, symName: __ZNSt3__16vectorIN8Solution11node_structENS_9allocatorIS2_EEE22__base_destruct_at_endB8ue170006EPS2_, symObjAddr: 0x5FA0, symBinAddr: 0x10000A438, symSize: 0x8C }
  - { offsetInCU: 0x12CF4, offset: 0x12CF4, size: 0x8, addend: 0x0, symName: __ZNSt3__16vectorIN8Solution11node_structENS_9allocatorIS2_EEED2B8ue170006Ev, symObjAddr: 0x602C, symBinAddr: 0x10000A4C4, symSize: 0x40 }
  - { offsetInCU: 0x12D1D, offset: 0x12D1D, size: 0x8, addend: 0x0, symName: __ZNSt3__16vectorIiNS_9allocatorIiEEED2B8ue170006Ev, symObjAddr: 0x606C, symBinAddr: 0x10000A504, symSize: 0x40 }
  - { offsetInCU: 0x12D46, offset: 0x12D46, size: 0x8, addend: 0x0, symName: __ZNSt3__16vectorINS0_IiNS_9allocatorIiEEEENS1_IS3_EEEC2B8ue170006Ev, symObjAddr: 0x60AC, symBinAddr: 0x10000A544, symSize: 0x4C }
  - { offsetInCU: 0x12D6F, offset: 0x12D6F, size: 0x8, addend: 0x0, symName: __ZNSt3__117__compressed_pairIPNS_6vectorIiNS_9allocatorIiEEEENS2_IS4_EEEC1B8ue170006IDnNS_18__default_init_tagEEEOT_OT0_, symObjAddr: 0x60F8, symBinAddr: 0x10000A590, symSize: 0x3C }
  - { offsetInCU: 0x12DC6, offset: 0x12DC6, size: 0x8, addend: 0x0, symName: __ZNSt3__117__compressed_pairIPNS_6vectorIiNS_9allocatorIiEEEENS2_IS4_EEEC2B8ue170006IDnNS_18__default_init_tagEEEOT_OT0_, symObjAddr: 0x6134, symBinAddr: 0x10000A5CC, symSize: 0x40 }
  - { offsetInCU: 0x12E1D, offset: 0x12E1D, size: 0x8, addend: 0x0, symName: __ZNSt3__122__compressed_pair_elemIPNS_6vectorIiNS_9allocatorIiEEEELi0ELb0EEC2B8ue170006IDnvEEOT_, symObjAddr: 0x6174, symBinAddr: 0x10000A60C, symSize: 0x1C }
  - { offsetInCU: 0x12E5E, offset: 0x12E5E, size: 0x8, addend: 0x0, symName: __ZNSt3__122__compressed_pair_elemINS_9allocatorINS_6vectorIiNS1_IiEEEEEELi1ELb1EEC2B8ue170006ENS_18__default_init_tagE, symObjAddr: 0x6190, symBinAddr: 0x10000A628, symSize: 0x2C }
  - { offsetInCU: 0x12E92, offset: 0x12E92, size: 0x8, addend: 0x0, symName: __ZNSt3__19allocatorINS_6vectorIiNS0_IiEEEEEC2B8ue170006Ev, symObjAddr: 0x61BC, symBinAddr: 0x10000A654, symSize: 0x2C }
  - { offsetInCU: 0x12EBB, offset: 0x12EBB, size: 0x8, addend: 0x0, symName: __ZNSt3__116__non_trivial_ifILb1ENS_9allocatorINS_6vectorIiNS1_IiEEEEEEEC2B8ue170006Ev, symObjAddr: 0x61E8, symBinAddr: 0x10000A680, symSize: 0x14 }
  - { offsetInCU: 0x12EE4, offset: 0x12EE4, size: 0x8, addend: 0x0, symName: __ZNSt3__16vectorINS0_IiNS_9allocatorIiEEEENS1_IS3_EEED2B8ue170006Ev, symObjAddr: 0x61FC, symBinAddr: 0x10000A694, symSize: 0x44 }
  - { offsetInCU: 0x12F0D, offset: 0x12F0D, size: 0x8, addend: 0x0, symName: __ZNSt3__16vectorINS0_IiNS_9allocatorIiEEEENS1_IS3_EEE16__destroy_vectorC1B8ue170006ERS5_, symObjAddr: 0x6240, symBinAddr: 0x10000A6D8, symSize: 0x34 }
  - { offsetInCU: 0x12F45, offset: 0x12F45, size: 0x8, addend: 0x0, symName: __ZNSt3__16vectorINS0_IiNS_9allocatorIiEEEENS1_IS3_EEE16__destroy_vectorclB8ue170006Ev, symObjAddr: 0x6274, symBinAddr: 0x10000A70C, symSize: 0x90 }
  - { offsetInCU: 0x12F6A, offset: 0x12F6A, size: 0x8, addend: 0x0, symName: __ZNSt3__16vectorINS0_IiNS_9allocatorIiEEEENS1_IS3_EEE16__destroy_vectorC2B8ue170006ERS5_, symObjAddr: 0x6304, symBinAddr: 0x10000A79C, symSize: 0x20 }
  - { offsetInCU: 0x12FA2, offset: 0x12FA2, size: 0x8, addend: 0x0, symName: __ZNSt3__16vectorINS0_IiNS_9allocatorIiEEEENS1_IS3_EEE7__clearB8ue170006Ev, symObjAddr: 0x6324, symBinAddr: 0x10000A7BC, symSize: 0x28 }
  - { offsetInCU: 0x12FC7, offset: 0x12FC7, size: 0x8, addend: 0x0, symName: __ZNKSt3__16vectorINS0_IiNS_9allocatorIiEEEENS1_IS3_EEE17__annotate_deleteB8ue170006Ev, symObjAddr: 0x634C, symBinAddr: 0x10000A7E4, symSize: 0xD4 }
  - { offsetInCU: 0x12FEC, offset: 0x12FEC, size: 0x8, addend: 0x0, symName: __ZNSt3__116allocator_traitsINS_9allocatorINS_6vectorIiNS1_IiEEEEEEE10deallocateB8ue170006ERS5_PS4_m, symObjAddr: 0x6420, symBinAddr: 0x10000A8B8, symSize: 0x34 }
  - { offsetInCU: 0x1302E, offset: 0x1302E, size: 0x8, addend: 0x0, symName: __ZNSt3__16vectorINS0_IiNS_9allocatorIiEEEENS1_IS3_EEE7__allocB8ue170006Ev, symObjAddr: 0x6454, symBinAddr: 0x10000A8EC, symSize: 0x28 }
  - { offsetInCU: 0x13053, offset: 0x13053, size: 0x8, addend: 0x0, symName: __ZNKSt3__16vectorINS0_IiNS_9allocatorIiEEEENS1_IS3_EEE8capacityB8ue170006Ev, symObjAddr: 0x647C, symBinAddr: 0x10000A914, symSize: 0x40 }
  - { offsetInCU: 0x13078, offset: 0x13078, size: 0x8, addend: 0x0, symName: __ZNSt3__16vectorINS0_IiNS_9allocatorIiEEEENS1_IS3_EEE22__base_destruct_at_endB8ue170006EPS3_, symObjAddr: 0x64BC, symBinAddr: 0x10000A954, symSize: 0x8C }
  - { offsetInCU: 0x130BB, offset: 0x130BB, size: 0x8, addend: 0x0, symName: __ZNSt3__116allocator_traitsINS_9allocatorINS_6vectorIiNS1_IiEEEEEEE7destroyB8ue170006IS4_vEEvRS5_PT_, symObjAddr: 0x6548, symBinAddr: 0x10000A9E0, symSize: 0x2C }
  - { offsetInCU: 0x130F8, offset: 0x130F8, size: 0x8, addend: 0x0, symName: __ZNSt3__19allocatorINS_6vectorIiNS0_IiEEEEE7destroyB8ue170006EPS3_, symObjAddr: 0x6588, symBinAddr: 0x10000AA20, symSize: 0x28 }
  - { offsetInCU: 0x1312B, offset: 0x1312B, size: 0x8, addend: 0x0, symName: __ZNKSt3__16vectorINS0_IiNS_9allocatorIiEEEENS1_IS3_EEE31__annotate_contiguous_containerB8ue170006EPKvS7_S7_S7_, symObjAddr: 0x65B0, symBinAddr: 0x10000AA48, symSize: 0x20 }
  - { offsetInCU: 0x1317C, offset: 0x1317C, size: 0x8, addend: 0x0, symName: __ZNKSt3__16vectorINS0_IiNS_9allocatorIiEEEENS1_IS3_EEE4dataB8ue170006Ev, symObjAddr: 0x65D0, symBinAddr: 0x10000AA68, symSize: 0x28 }
  - { offsetInCU: 0x131A1, offset: 0x131A1, size: 0x8, addend: 0x0, symName: __ZNKSt3__16vectorINS0_IiNS_9allocatorIiEEEENS1_IS3_EEE4sizeB8ue170006Ev, symObjAddr: 0x65F8, symBinAddr: 0x10000AA90, symSize: 0x28 }
  - { offsetInCU: 0x131C6, offset: 0x131C6, size: 0x8, addend: 0x0, symName: __ZNSt3__19allocatorINS_6vectorIiNS0_IiEEEEE10deallocateB8ue170006EPS3_m, symObjAddr: 0x6620, symBinAddr: 0x10000AAB8, symSize: 0x44 }
  - { offsetInCU: 0x13207, offset: 0x13207, size: 0x8, addend: 0x0, symName: __ZNSt3__117__compressed_pairIPNS_6vectorIiNS_9allocatorIiEEEENS2_IS4_EEE6secondB8ue170006Ev, symObjAddr: 0x6664, symBinAddr: 0x10000AAFC, symSize: 0x24 }
  - { offsetInCU: 0x1322C, offset: 0x1322C, size: 0x8, addend: 0x0, symName: __ZNSt3__122__compressed_pair_elemINS_9allocatorINS_6vectorIiNS1_IiEEEEEELi1ELb1EE5__getB8ue170006Ev, symObjAddr: 0x6688, symBinAddr: 0x10000AB20, symSize: 0x14 }
  - { offsetInCU: 0x13251, offset: 0x13251, size: 0x8, addend: 0x0, symName: __ZNKSt3__16vectorINS0_IiNS_9allocatorIiEEEENS1_IS3_EEE9__end_capB8ue170006Ev, symObjAddr: 0x669C, symBinAddr: 0x10000AB34, symSize: 0x28 }
  - { offsetInCU: 0x13276, offset: 0x13276, size: 0x8, addend: 0x0, symName: __ZNKSt3__117__compressed_pairIPNS_6vectorIiNS_9allocatorIiEEEENS2_IS4_EEE5firstB8ue170006Ev, symObjAddr: 0x66C4, symBinAddr: 0x10000AB5C, symSize: 0x24 }
  - { offsetInCU: 0x1329B, offset: 0x1329B, size: 0x8, addend: 0x0, symName: __ZNKSt3__122__compressed_pair_elemIPNS_6vectorIiNS_9allocatorIiEEEELi0ELb0EE5__getB8ue170006Ev, symObjAddr: 0x66E8, symBinAddr: 0x10000AB80, symSize: 0x14 }
  - { offsetInCU: 0x132C0, offset: 0x132C0, size: 0x8, addend: 0x0, symName: __ZNSt3__16vectorIiNS_9allocatorIiEEEC2B8ue170006ESt16initializer_listIiE, symObjAddr: 0x66FC, symBinAddr: 0x10000AB94, symSize: 0x120 }
  - { offsetInCU: 0x13310, offset: 0x13310, size: 0x8, addend: 0x0, symName: __ZNKSt16initializer_listIiE4sizeB8ue170006Ev, symObjAddr: 0x681C, symBinAddr: 0x10000ACB4, symSize: 0x18 }
  - { offsetInCU: 0x13334, offset: 0x13334, size: 0x8, addend: 0x0, symName: __ZNSt3__16vectorIiNS_9allocatorIiEEE18__construct_at_endIPKiS6_EEvT_T0_m, symObjAddr: 0x6834, symBinAddr: 0x10000ACCC, symSize: 0x8C }
  - { offsetInCU: 0x133A9, offset: 0x133A9, size: 0x8, addend: 0x0, symName: __ZNKSt16initializer_listIiE5beginB8ue170006Ev, symObjAddr: 0x68C0, symBinAddr: 0x10000AD58, symSize: 0x18 }
  - { offsetInCU: 0x133CE, offset: 0x133CE, size: 0x8, addend: 0x0, symName: __ZNKSt16initializer_listIiE3endB8ue170006Ev, symObjAddr: 0x68D8, symBinAddr: 0x10000AD70, symSize: 0x20 }
  - { offsetInCU: 0x13411, offset: 0x13411, size: 0x8, addend: 0x0, symName: __ZNSt3__14pairIPKiS2_EC1B8ue170006IS2_S2_LPv0EEEOT_OT0_, symObjAddr: 0x6A6C, symBinAddr: 0x10000AF04, symSize: 0x3C }
  - { offsetInCU: 0x1346E, offset: 0x1346E, size: 0x8, addend: 0x0, symName: __ZNSt3__14pairIPKiS2_EC2B8ue170006IS2_S2_LPv0EEEOT_OT0_, symObjAddr: 0x6AA8, symBinAddr: 0x10000AF40, symSize: 0x34 }
  - { offsetInCU: 0x134CB, offset: 0x134CB, size: 0x8, addend: 0x0, symName: __ZNSt3__118__unwrap_iter_implIPKiLb1EE8__unwrapB8ue170006ES2_, symObjAddr: 0x6ADC, symBinAddr: 0x10000AF74, symSize: 0x24 }
  - { offsetInCU: 0x13507, offset: 0x13507, size: 0x8, addend: 0x0, symName: __ZNKSt3__114__copy_trivialclB8ue170006IKiiLi0EEENS_4pairIPT_PT0_EES5_S5_S7_, symObjAddr: 0x6C7C, symBinAddr: 0x10000B114, symSize: 0x48 }
  - { offsetInCU: 0x13573, offset: 0x13573, size: 0x8, addend: 0x0, symName: __ZNSt3__14pairIPKiPiEC1B8ue170006IRS2_S3_LPv0EEEOT_OT0_, symObjAddr: 0x6E44, symBinAddr: 0x10000B2DC, symSize: 0x3C }
  - { offsetInCU: 0x135D0, offset: 0x135D0, size: 0x8, addend: 0x0, symName: __ZNSt3__14pairIPKiPiEC2B8ue170006IRS2_S3_LPv0EEEOT_OT0_, symObjAddr: 0x6E80, symBinAddr: 0x10000B318, symSize: 0x34 }
  - { offsetInCU: 0x1362D, offset: 0x1362D, size: 0x8, addend: 0x0, symName: __ZNSt3__14pairIPKiPiEC1B8ue170006IS2_S3_LPv0EEEOT_OT0_, symObjAddr: 0x6EB4, symBinAddr: 0x10000B34C, symSize: 0x3C }
  - { offsetInCU: 0x1368A, offset: 0x1368A, size: 0x8, addend: 0x0, symName: __ZNSt3__14pairIPKiPiEC2B8ue170006IS2_S3_LPv0EEEOT_OT0_, symObjAddr: 0x6EF0, symBinAddr: 0x10000B388, symSize: 0x34 }
  - { offsetInCU: 0x136E7, offset: 0x136E7, size: 0x8, addend: 0x0, symName: __ZNSt3__118__unwrap_iter_implIPKiLb1EE8__rewrapB8ue170006ES2_S2_, symObjAddr: 0x6F60, symBinAddr: 0x10000B3F8, symSize: 0x50 }
  - { offsetInCU: 0x13717, offset: 0x13717, size: 0x8, addend: 0x0, symName: __ZNKSt3__19basic_iosIcNS_11char_traitsIcEEE5widenB8ue170006Ec, symObjAddr: 0x6FB0, symBinAddr: 0x10000B448, symSize: 0x84 }
  - { offsetInCU: 0x1377F, offset: 0x1377F, size: 0x8, addend: 0x0, symName: __ZNKSt3__15ctypeIcE5widenB8ue170006Ec, symObjAddr: 0x7060, symBinAddr: 0x10000B4F8, symSize: 0x38 }
...
